
main:     file format elf64-littleriscv


Disassembly of section .text:

0000000050200000 <_start>:
    50200000:	10401073          	csrw	sie,zero
    50200004:	14401073          	csrw	sip,zero
    50200008:	6299                	lui	t0,0x6
    5020000a:	1002b073          	csrc	sstatus,t0
    5020000e:	00005197          	auipc	gp,0x5
    50200012:	c7a18193          	addi	gp,gp,-902 # 50204c88 <__global_pointer$>
    50200016:	83818693          	addi	a3,gp,-1992 # 502044c0 <_edata>
    5020001a:	00007717          	auipc	a4,0x7
    5020001e:	ef670713          	addi	a4,a4,-266 # 50206f10 <__BSS_END__>
    50200022:	00e6d763          	bge	a3,a4,50200030 <clear_bss_done>

0000000050200026 <clear_bss>:
    50200026:	0006b023          	sd	zero,0(a3)
    5020002a:	06a1                	addi	a3,a3,8
    5020002c:	fee6cde3          	blt	a3,a4,50200026 <clear_bss>

0000000050200030 <clear_bss_done>:
    50200030:	00004217          	auipc	tp,0x4
    50200034:	ee820213          	addi	tp,tp,-280 # 50203f18 <pid0_pcb>
    50200038:	00004117          	auipc	sp,0x4
    5020003c:	45012103          	lw	sp,1104(sp) # 50204488 <pid0_stack>
    50200040:	14001073          	csrw	sscratch,zero
    50200044:	00006517          	auipc	a0,0x6
    50200048:	45c50513          	addi	a0,a0,1116 # 502064a0 <riscv_dtb>
    5020004c:	e10c                	sd	a1,0(a0)
    5020004e:	051000ef          	jal	ra,5020089e <main>

0000000050200052 <loop>:
    50200052:	10500073          	wfi
    50200056:	bff5                	j	50200052 <loop>
    50200058:	0000                	unimp
	...

000000005020005c <setup_exception>:
    5020005c:	00000417          	auipc	s0,0x0
    50200060:	14c40413          	addi	s0,s0,332 # 502001a8 <exception_handler_entry>
    50200064:	10541073          	csrw	stvec,s0
    50200068:	4409                	li	s0,2
    5020006a:	10041073          	csrw	sstatus,s0
    5020006e:	22200413          	li	s0,546
    50200072:	10441073          	csrw	sie,s0
    50200076:	8082                	ret

0000000050200078 <setup_Umode>:
    50200078:	14109073          	csrw	sepc,ra
    5020007c:	10000413          	li	s0,256
    50200080:	10041073          	csrw	sstatus,s0
    50200084:	10200073          	sret

0000000050200088 <enable_preempt>:
    50200088:	00006317          	auipc	t1,0x6
    5020008c:	58033303          	ld	t1,1408(t1) # 50206608 <current_running>
    50200090:	01033283          	ld	t0,16(t1)
    50200094:	00028863          	beqz	t0,502000a4 <do_enable>
    50200098:	12fd                	addi	t0,t0,-1
    5020009a:	00533823          	sd	t0,16(t1)
    5020009e:	00028363          	beqz	t0,502000a4 <do_enable>
    502000a2:	8082                	ret

00000000502000a4 <do_enable>:
    502000a4:	fff04293          	not	t0,zero
    502000a8:	1042a073          	csrs	sie,t0
    502000ac:	8082                	ret
    502000ae:	0001                	nop

00000000502000b0 <disable_preempt>:
    502000b0:	10401073          	csrw	sie,zero
    502000b4:	00006317          	auipc	t1,0x6
    502000b8:	55433303          	ld	t1,1364(t1) # 50206608 <current_running>
    502000bc:	01033283          	ld	t0,16(t1)
    502000c0:	0285                	addi	t0,t0,1
    502000c2:	00533823          	sd	t0,16(t1)
    502000c6:	8082                	ret

00000000502000c8 <enable_interrupt>:
    502000c8:	4289                	li	t0,2
    502000ca:	1002a073          	csrs	sstatus,t0
    502000ce:	8082                	ret

00000000502000d0 <disable_interrupt>:
    502000d0:	4289                	li	t0,2
    502000d2:	1002b073          	csrc	sstatus,t0
    502000d6:	8082                	ret

00000000502000d8 <switch_to>:
    502000d8:	00053283          	ld	t0,0(a0)
    502000dc:	0022b423          	sd	sp,8(t0) # 6008 <_start-0x501f9ff8>
    502000e0:	0012b023          	sd	ra,0(t0)
    502000e4:	0082b823          	sd	s0,16(t0)
    502000e8:	0092bc23          	sd	s1,24(t0)
    502000ec:	0322b023          	sd	s2,32(t0)
    502000f0:	0332b423          	sd	s3,40(t0)
    502000f4:	0342b823          	sd	s4,48(t0)
    502000f8:	0352bc23          	sd	s5,56(t0)
    502000fc:	0562b023          	sd	s6,64(t0)
    50200100:	0572b423          	sd	s7,72(t0)
    50200104:	0582b823          	sd	s8,80(t0)
    50200108:	0592bc23          	sd	s9,88(t0)
    5020010c:	07a2b023          	sd	s10,96(t0)
    50200110:	07b2b423          	sd	s11,104(t0)
    50200114:	0005b283          	ld	t0,0(a1)
    50200118:	0002b083          	ld	ra,0(t0)
    5020011c:	0082b103          	ld	sp,8(t0)
    50200120:	0102b403          	ld	s0,16(t0)
    50200124:	0182b483          	ld	s1,24(t0)
    50200128:	0202b903          	ld	s2,32(t0)
    5020012c:	0282b983          	ld	s3,40(t0)
    50200130:	0302ba03          	ld	s4,48(t0)
    50200134:	0382ba83          	ld	s5,56(t0)
    50200138:	0402bb03          	ld	s6,64(t0)
    5020013c:	0482bb83          	ld	s7,72(t0)
    50200140:	0502bc03          	ld	s8,80(t0)
    50200144:	0582bc83          	ld	s9,88(t0)
    50200148:	0602bd03          	ld	s10,96(t0)
    5020014c:	0682bd83          	ld	s11,104(t0)
    50200150:	822e                	mv	tp,a1
    50200152:	8082                	ret

0000000050200154 <ret_from_exception>:
    50200154:	00023103          	ld	sp,0(tp) # 0 <_start-0x50200000>
    50200158:	6165                	addi	sp,sp,112
    5020015a:	6412                	ld	s0,256(sp)
    5020015c:	64b2                	ld	s1,264(sp)
    5020015e:	10041073          	csrw	sstatus,s0
    50200162:	14149073          	csrw	sepc,s1
    50200166:	e002                	sd	zero,0(sp)
    50200168:	60a2                	ld	ra,8(sp)
    5020016a:	61e2                	ld	gp,24(sp)
    5020016c:	72a2                	ld	t0,40(sp)
    5020016e:	7342                	ld	t1,48(sp)
    50200170:	73e2                	ld	t2,56(sp)
    50200172:	6406                	ld	s0,64(sp)
    50200174:	64a6                	ld	s1,72(sp)
    50200176:	6546                	ld	a0,80(sp)
    50200178:	65e6                	ld	a1,88(sp)
    5020017a:	7606                	ld	a2,96(sp)
    5020017c:	76a6                	ld	a3,104(sp)
    5020017e:	7746                	ld	a4,112(sp)
    50200180:	77e6                	ld	a5,120(sp)
    50200182:	680a                	ld	a6,128(sp)
    50200184:	68aa                	ld	a7,136(sp)
    50200186:	694a                	ld	s2,144(sp)
    50200188:	69ea                	ld	s3,152(sp)
    5020018a:	7a0a                	ld	s4,160(sp)
    5020018c:	7aaa                	ld	s5,168(sp)
    5020018e:	7b4a                	ld	s6,176(sp)
    50200190:	7bea                	ld	s7,184(sp)
    50200192:	6c0e                	ld	s8,192(sp)
    50200194:	6cae                	ld	s9,200(sp)
    50200196:	6d4e                	ld	s10,208(sp)
    50200198:	6dee                	ld	s11,216(sp)
    5020019a:	7e0e                	ld	t3,224(sp)
    5020019c:	7eae                	ld	t4,232(sp)
    5020019e:	7f4e                	ld	t5,240(sp)
    502001a0:	7fee                	ld	t6,248(sp)
    502001a2:	6142                	ld	sp,16(sp)
    502001a4:	10200073          	sret

00000000502001a8 <exception_handler_entry>:
    502001a8:	02223423          	sd	sp,40(tp) # 28 <_start-0x501fffd8>
    502001ac:	00023103          	ld	sp,0(tp) # 0 <_start-0x50200000>
    502001b0:	6165                	addi	sp,sp,112
    502001b2:	e002                	sd	zero,0(sp)
    502001b4:	e406                	sd	ra,8(sp)
    502001b6:	ec0e                	sd	gp,24(sp)
    502001b8:	f416                	sd	t0,40(sp)
    502001ba:	f81a                	sd	t1,48(sp)
    502001bc:	fc1e                	sd	t2,56(sp)
    502001be:	e0a2                	sd	s0,64(sp)
    502001c0:	e4a6                	sd	s1,72(sp)
    502001c2:	e8aa                	sd	a0,80(sp)
    502001c4:	ecae                	sd	a1,88(sp)
    502001c6:	f0b2                	sd	a2,96(sp)
    502001c8:	f4b6                	sd	a3,104(sp)
    502001ca:	f8ba                	sd	a4,112(sp)
    502001cc:	fcbe                	sd	a5,120(sp)
    502001ce:	e142                	sd	a6,128(sp)
    502001d0:	e546                	sd	a7,136(sp)
    502001d2:	e94a                	sd	s2,144(sp)
    502001d4:	ed4e                	sd	s3,152(sp)
    502001d6:	f152                	sd	s4,160(sp)
    502001d8:	f556                	sd	s5,168(sp)
    502001da:	f95a                	sd	s6,176(sp)
    502001dc:	fd5e                	sd	s7,184(sp)
    502001de:	e1e2                	sd	s8,192(sp)
    502001e0:	e5e6                	sd	s9,200(sp)
    502001e2:	e9ea                	sd	s10,208(sp)
    502001e4:	edee                	sd	s11,216(sp)
    502001e6:	f1f2                	sd	t3,224(sp)
    502001e8:	f5f6                	sd	t4,232(sp)
    502001ea:	f9fa                	sd	t5,240(sp)
    502001ec:	fdfe                	sd	t6,248(sp)
    502001ee:	02823403          	ld	s0,40(tp) # 28 <_start-0x501fffd8>
    502001f2:	e822                	sd	s0,16(sp)
    502001f4:	000462b7          	lui	t0,0x46
    502001f8:	10029073          	csrw	sstatus,t0
    502001fc:	e216                	sd	t0,256(sp)
    502001fe:	14302473          	csrr	s0,stval
    50200202:	141024f3          	csrr	s1,sepc
    50200206:	14202973          	csrr	s2,scause
    5020020a:	140029f3          	csrr	s3,sscratch
    5020020e:	ea22                	sd	s0,272(sp)
    50200210:	e626                	sd	s1,264(sp)
    50200212:	ee4a                	sd	s2,280(sp)
    50200214:	f04e                	sd	s3,32(sp)
    50200216:	7159                	addi	sp,sp,-112
    50200218:	14001073          	csrw	sscratch,zero
    5020021c:	00005197          	auipc	gp,0x5
    50200220:	a6c18193          	addi	gp,gp,-1428 # 50204c88 <__global_pointer$>
    50200224:	850a                	mv	a0,sp
    50200226:	07050513          	addi	a0,a0,112
    5020022a:	143025f3          	csrr	a1,stval
    5020022e:	14202673          	csrr	a2,scause
    50200232:	77a000ef          	jal	ra,502009ac <interrupt_helper>
    50200236:	00000097          	auipc	ra,0x0
    5020023a:	f1e08093          	addi	ra,ra,-226 # 50200154 <ret_from_exception>
    5020023e:	8082                	ret

0000000050200240 <sbi_console_putstr>:
    50200240:	1101                	addi	sp,sp,-32
    50200242:	ec22                	sd	s0,24(sp)
    50200244:	1000                	addi	s0,sp,32
    50200246:	fea43423          	sd	a0,-24(s0)
    5020024a:	fe843783          	ld	a5,-24(s0)
    5020024e:	853e                	mv	a0,a5
    50200250:	4581                	li	a1,0
    50200252:	4601                	li	a2,0
    50200254:	48a5                	li	a7,9
    50200256:	00000073          	ecall
    5020025a:	0001                	nop
    5020025c:	6462                	ld	s0,24(sp)
    5020025e:	6105                	addi	sp,sp,32
    50200260:	8082                	ret

0000000050200262 <sbi_console_putchar>:
    50200262:	1101                	addi	sp,sp,-32
    50200264:	ec22                	sd	s0,24(sp)
    50200266:	1000                	addi	s0,sp,32
    50200268:	87aa                	mv	a5,a0
    5020026a:	fef42623          	sw	a5,-20(s0)
    5020026e:	fec42783          	lw	a5,-20(s0)
    50200272:	853e                	mv	a0,a5
    50200274:	4581                	li	a1,0
    50200276:	4601                	li	a2,0
    50200278:	4885                	li	a7,1
    5020027a:	00000073          	ecall
    5020027e:	0001                	nop
    50200280:	6462                	ld	s0,24(sp)
    50200282:	6105                	addi	sp,sp,32
    50200284:	8082                	ret

0000000050200286 <port_write_ch>:
    50200286:	1101                	addi	sp,sp,-32
    50200288:	ec06                	sd	ra,24(sp)
    5020028a:	e822                	sd	s0,16(sp)
    5020028c:	1000                	addi	s0,sp,32
    5020028e:	87aa                	mv	a5,a0
    50200290:	fef407a3          	sb	a5,-17(s0)
    50200294:	fef44783          	lbu	a5,-17(s0)
    50200298:	2781                	sext.w	a5,a5
    5020029a:	853e                	mv	a0,a5
    5020029c:	fc7ff0ef          	jal	ra,50200262 <sbi_console_putchar>
    502002a0:	0001                	nop
    502002a2:	60e2                	ld	ra,24(sp)
    502002a4:	6442                	ld	s0,16(sp)
    502002a6:	6105                	addi	sp,sp,32
    502002a8:	8082                	ret

00000000502002aa <port_write>:
    502002aa:	1101                	addi	sp,sp,-32
    502002ac:	ec06                	sd	ra,24(sp)
    502002ae:	e822                	sd	s0,16(sp)
    502002b0:	1000                	addi	s0,sp,32
    502002b2:	fea43423          	sd	a0,-24(s0)
    502002b6:	fe843503          	ld	a0,-24(s0)
    502002ba:	f87ff0ef          	jal	ra,50200240 <sbi_console_putstr>
    502002be:	0001                	nop
    502002c0:	60e2                	ld	ra,24(sp)
    502002c2:	6442                	ld	s0,16(sp)
    502002c4:	6105                	addi	sp,sp,32
    502002c6:	8082                	ret

00000000502002c8 <init_list_head>:
    502002c8:	1101                	addi	sp,sp,-32
    502002ca:	ec22                	sd	s0,24(sp)
    502002cc:	1000                	addi	s0,sp,32
    502002ce:	fea43423          	sd	a0,-24(s0)
    502002d2:	fe843783          	ld	a5,-24(s0)
    502002d6:	fe843703          	ld	a4,-24(s0)
    502002da:	e398                	sd	a4,0(a5)
    502002dc:	fe843783          	ld	a5,-24(s0)
    502002e0:	fe843703          	ld	a4,-24(s0)
    502002e4:	e798                	sd	a4,8(a5)
    502002e6:	0001                	nop
    502002e8:	6462                	ld	s0,24(sp)
    502002ea:	6105                	addi	sp,sp,32
    502002ec:	8082                	ret

00000000502002ee <sbi_console_getchar>:
    502002ee:	1141                	addi	sp,sp,-16
    502002f0:	e422                	sd	s0,8(sp)
    502002f2:	0800                	addi	s0,sp,16
    502002f4:	4501                	li	a0,0
    502002f6:	4581                	li	a1,0
    502002f8:	4601                	li	a2,0
    502002fa:	4889                	li	a7,2
    502002fc:	00000073          	ecall
    50200300:	87aa                	mv	a5,a0
    50200302:	2781                	sext.w	a5,a5
    50200304:	853e                	mv	a0,a5
    50200306:	6422                	ld	s0,8(sp)
    50200308:	0141                	addi	sp,sp,16
    5020030a:	8082                	ret

000000005020030c <sbi_set_timer>:
    5020030c:	1101                	addi	sp,sp,-32
    5020030e:	ec22                	sd	s0,24(sp)
    50200310:	1000                	addi	s0,sp,32
    50200312:	fea43423          	sd	a0,-24(s0)
    50200316:	fe843503          	ld	a0,-24(s0)
    5020031a:	4581                	li	a1,0
    5020031c:	4601                	li	a2,0
    5020031e:	4881                	li	a7,0
    50200320:	00000073          	ecall
    50200324:	0001                	nop
    50200326:	6462                	ld	s0,24(sp)
    50200328:	6105                	addi	sp,sp,32
    5020032a:	8082                	ret

000000005020032c <sbi_read_fdt>:
    5020032c:	1101                	addi	sp,sp,-32
    5020032e:	ec22                	sd	s0,24(sp)
    50200330:	1000                	addi	s0,sp,32
    50200332:	87aa                	mv	a5,a0
    50200334:	fef42623          	sw	a5,-20(s0)
    50200338:	fec42783          	lw	a5,-20(s0)
    5020033c:	853e                	mv	a0,a5
    5020033e:	4581                	li	a1,0
    50200340:	4601                	li	a2,0
    50200342:	48b1                	li	a7,12
    50200344:	00000073          	ecall
    50200348:	87aa                	mv	a5,a0
    5020034a:	2781                	sext.w	a5,a5
    5020034c:	853e                	mv	a0,a5
    5020034e:	6462                	ld	s0,24(sp)
    50200350:	6105                	addi	sp,sp,32
    50200352:	8082                	ret

0000000050200354 <init_pcb_stack>:
    50200354:	715d                	addi	sp,sp,-80
    50200356:	e4a2                	sd	s0,72(sp)
    50200358:	0880                	addi	s0,sp,80
    5020035a:	fca43423          	sd	a0,-56(s0)
    5020035e:	fcb43023          	sd	a1,-64(s0)
    50200362:	fac43c23          	sd	a2,-72(s0)
    50200366:	fad43823          	sd	a3,-80(s0)
    5020036a:	fc843783          	ld	a5,-56(s0)
    5020036e:	ee078793          	addi	a5,a5,-288
    50200372:	fef43023          	sd	a5,-32(s0)
    50200376:	fe043423          	sd	zero,-24(s0)
    5020037a:	a831                	j	50200396 <init_pcb_stack+0x42>
    5020037c:	fe043703          	ld	a4,-32(s0)
    50200380:	fe843783          	ld	a5,-24(s0)
    50200384:	078e                	slli	a5,a5,0x3
    50200386:	97ba                	add	a5,a5,a4
    50200388:	0007b023          	sd	zero,0(a5)
    5020038c:	fe843783          	ld	a5,-24(s0)
    50200390:	0785                	addi	a5,a5,1
    50200392:	fef43423          	sd	a5,-24(s0)
    50200396:	fe843703          	ld	a4,-24(s0)
    5020039a:	47fd                	li	a5,31
    5020039c:	fee7f0e3          	bgeu	a5,a4,5020037c <init_pcb_stack+0x28>
    502003a0:	fb043783          	ld	a5,-80(s0)
    502003a4:	5bdc                	lw	a5,52(a5)
    502003a6:	873e                	mv	a4,a5
    502003a8:	4789                	li	a5,2
    502003aa:	00f70963          	beq	a4,a5,502003bc <init_pcb_stack+0x68>
    502003ae:	fb043783          	ld	a5,-80(s0)
    502003b2:	5bdc                	lw	a5,52(a5)
    502003b4:	873e                	mv	a4,a5
    502003b6:	478d                	li	a5,3
    502003b8:	02f71c63          	bne	a4,a5,502003f0 <init_pcb_stack+0x9c>
    502003bc:	fe043783          	ld	a5,-32(s0)
    502003c0:	fc043703          	ld	a4,-64(s0)
    502003c4:	eb98                	sd	a4,16(a5)
    502003c6:	00018713          	mv	a4,gp
    502003ca:	fe043783          	ld	a5,-32(s0)
    502003ce:	ef98                	sd	a4,24(a5)
    502003d0:	fe043783          	ld	a5,-32(s0)
    502003d4:	fb843703          	ld	a4,-72(s0)
    502003d8:	e798                	sd	a4,8(a5)
    502003da:	fe043783          	ld	a5,-32(s0)
    502003de:	fb843703          	ld	a4,-72(s0)
    502003e2:	10e7b423          	sd	a4,264(a5)
    502003e6:	fe043783          	ld	a5,-32(s0)
    502003ea:	4709                	li	a4,2
    502003ec:	10e7b023          	sd	a4,256(a5)
    502003f0:	fc843783          	ld	a5,-56(s0)
    502003f4:	e7078713          	addi	a4,a5,-400
    502003f8:	fb043783          	ld	a5,-80(s0)
    502003fc:	e398                	sd	a4,0(a5)
    502003fe:	fb043783          	ld	a5,-80(s0)
    50200402:	639c                	ld	a5,0(a5)
    50200404:	fcf43c23          	sd	a5,-40(s0)
    50200408:	fb043783          	ld	a5,-80(s0)
    5020040c:	5bdc                	lw	a5,52(a5)
    5020040e:	873e                	mv	a4,a5
    50200410:	4789                	li	a5,2
    50200412:	00f70963          	beq	a4,a5,50200424 <init_pcb_stack+0xd0>
    50200416:	fb043783          	ld	a5,-80(s0)
    5020041a:	5bdc                	lw	a5,52(a5)
    5020041c:	873e                	mv	a4,a5
    5020041e:	478d                	li	a5,3
    50200420:	00f71a63          	bne	a4,a5,50200434 <init_pcb_stack+0xe0>
    50200424:	00000717          	auipc	a4,0x0
    50200428:	d3070713          	addi	a4,a4,-720 # 50200154 <ret_from_exception>
    5020042c:	fd843783          	ld	a5,-40(s0)
    50200430:	e398                	sd	a4,0(a5)
    50200432:	a031                	j	5020043e <init_pcb_stack+0xea>
    50200434:	fd843783          	ld	a5,-40(s0)
    50200438:	fb843703          	ld	a4,-72(s0)
    5020043c:	e398                	sd	a4,0(a5)
    5020043e:	fc843783          	ld	a5,-56(s0)
    50200442:	e7078713          	addi	a4,a5,-400
    50200446:	fd843783          	ld	a5,-40(s0)
    5020044a:	e798                	sd	a4,8(a5)
    5020044c:	0001                	nop
    5020044e:	6426                	ld	s0,72(sp)
    50200450:	6161                	addi	sp,sp,80
    50200452:	8082                	ret

0000000050200454 <init_pcb>:
    50200454:	7179                	addi	sp,sp,-48
    50200456:	f406                	sd	ra,40(sp)
    50200458:	f022                	sd	s0,32(sp)
    5020045a:	1800                	addi	s0,sp,48
    5020045c:	00004517          	auipc	a0,0x4
    50200460:	b2c50513          	addi	a0,a0,-1236 # 50203f88 <ready_queue>
    50200464:	e65ff0ef          	jal	ra,502002c8 <init_list_head>
    50200468:	00004517          	auipc	a0,0x4
    5020046c:	b4050513          	addi	a0,a0,-1216 # 50203fa8 <sleep_queue>
    50200470:	e59ff0ef          	jal	ra,502002c8 <init_list_head>
    50200474:	fe043423          	sd	zero,-24(s0)
    50200478:	00004797          	auipc	a5,0x4
    5020047c:	02078793          	addi	a5,a5,32 # 50204498 <process_id>
    50200480:	4705                	li	a4,1
    50200482:	c398                	sw	a4,0(a5)
    50200484:	82c18793          	addi	a5,gp,-2004 # 502044b4 <num_sched2_tasks>
    50200488:	4398                	lw	a4,0(a5)
    5020048a:	83018793          	addi	a5,gp,-2000 # 502044b8 <num_lock2_tasks>
    5020048e:	439c                	lw	a5,0(a5)
    50200490:	9fb9                	addw	a5,a5,a4
    50200492:	0007871b          	sext.w	a4,a5
    50200496:	82818793          	addi	a5,gp,-2008 # 502044b0 <num_timer_tasks>
    5020049a:	439c                	lw	a5,0(a5)
    5020049c:	9fb9                	addw	a5,a5,a4
    5020049e:	0007871b          	sext.w	a4,a5
    502004a2:	83418793          	addi	a5,gp,-1996 # 502044bc <num_fkpr_tasks>
    502004a6:	439c                	lw	a5,0(a5)
    502004a8:	9fb9                	addw	a5,a5,a4
    502004aa:	2781                	sext.w	a5,a5
    502004ac:	fcf43c23          	sd	a5,-40(s0)
    502004b0:	fe043023          	sd	zero,-32(s0)
    502004b4:	ac49                	j	50200746 <init_pcb+0x2f2>
    502004b6:	82c18793          	addi	a5,gp,-2004 # 502044b4 <num_sched2_tasks>
    502004ba:	439c                	lw	a5,0(a5)
    502004bc:	873e                	mv	a4,a5
    502004be:	fe043783          	ld	a5,-32(s0)
    502004c2:	00e7fe63          	bgeu	a5,a4,502004de <init_pcb+0x8a>
    502004c6:	00004717          	auipc	a4,0x4
    502004ca:	d1270713          	addi	a4,a4,-750 # 502041d8 <sched2_tasks>
    502004ce:	fe043783          	ld	a5,-32(s0)
    502004d2:	078e                	slli	a5,a5,0x3
    502004d4:	97ba                	add	a5,a5,a4
    502004d6:	639c                	ld	a5,0(a5)
    502004d8:	fef43423          	sd	a5,-24(s0)
    502004dc:	a87d                	j	5020059a <init_pcb+0x146>
    502004de:	82c18793          	addi	a5,gp,-2004 # 502044b4 <num_sched2_tasks>
    502004e2:	4398                	lw	a4,0(a5)
    502004e4:	83018793          	addi	a5,gp,-2000 # 502044b8 <num_lock2_tasks>
    502004e8:	439c                	lw	a5,0(a5)
    502004ea:	9fb9                	addw	a5,a5,a4
    502004ec:	2781                	sext.w	a5,a5
    502004ee:	873e                	mv	a4,a5
    502004f0:	fe043783          	ld	a5,-32(s0)
    502004f4:	02e7f363          	bgeu	a5,a4,5020051a <init_pcb+0xc6>
    502004f8:	82c18793          	addi	a5,gp,-2004 # 502044b4 <num_sched2_tasks>
    502004fc:	439c                	lw	a5,0(a5)
    502004fe:	873e                	mv	a4,a5
    50200500:	fe043783          	ld	a5,-32(s0)
    50200504:	8f99                	sub	a5,a5,a4
    50200506:	00004717          	auipc	a4,0x4
    5020050a:	d7270713          	addi	a4,a4,-654 # 50204278 <lock2_tasks>
    5020050e:	078e                	slli	a5,a5,0x3
    50200510:	97ba                	add	a5,a5,a4
    50200512:	639c                	ld	a5,0(a5)
    50200514:	fef43423          	sd	a5,-24(s0)
    50200518:	a049                	j	5020059a <init_pcb+0x146>
    5020051a:	82c18793          	addi	a5,gp,-2004 # 502044b4 <num_sched2_tasks>
    5020051e:	4398                	lw	a4,0(a5)
    50200520:	83018793          	addi	a5,gp,-2000 # 502044b8 <num_lock2_tasks>
    50200524:	439c                	lw	a5,0(a5)
    50200526:	9fb9                	addw	a5,a5,a4
    50200528:	0007871b          	sext.w	a4,a5
    5020052c:	82818793          	addi	a5,gp,-2008 # 502044b0 <num_timer_tasks>
    50200530:	439c                	lw	a5,0(a5)
    50200532:	9fb9                	addw	a5,a5,a4
    50200534:	2781                	sext.w	a5,a5
    50200536:	873e                	mv	a4,a5
    50200538:	fe043783          	ld	a5,-32(s0)
    5020053c:	02e7f763          	bgeu	a5,a4,5020056a <init_pcb+0x116>
    50200540:	82c18793          	addi	a5,gp,-2004 # 502044b4 <num_sched2_tasks>
    50200544:	439c                	lw	a5,0(a5)
    50200546:	873e                	mv	a4,a5
    50200548:	fe043783          	ld	a5,-32(s0)
    5020054c:	8f99                	sub	a5,a5,a4
    5020054e:	83018713          	addi	a4,gp,-2000 # 502044b8 <num_lock2_tasks>
    50200552:	4318                	lw	a4,0(a4)
    50200554:	8f99                	sub	a5,a5,a4
    50200556:	00004717          	auipc	a4,0x4
    5020055a:	bd270713          	addi	a4,a4,-1070 # 50204128 <timer_tasks>
    5020055e:	078e                	slli	a5,a5,0x3
    50200560:	97ba                	add	a5,a5,a4
    50200562:	639c                	ld	a5,0(a5)
    50200564:	fef43423          	sd	a5,-24(s0)
    50200568:	a80d                	j	5020059a <init_pcb+0x146>
    5020056a:	82c18793          	addi	a5,gp,-2004 # 502044b4 <num_sched2_tasks>
    5020056e:	439c                	lw	a5,0(a5)
    50200570:	873e                	mv	a4,a5
    50200572:	fe043783          	ld	a5,-32(s0)
    50200576:	8f99                	sub	a5,a5,a4
    50200578:	83018713          	addi	a4,gp,-2000 # 502044b8 <num_lock2_tasks>
    5020057c:	4318                	lw	a4,0(a4)
    5020057e:	8f99                	sub	a5,a5,a4
    50200580:	82818713          	addi	a4,gp,-2008 # 502044b0 <num_timer_tasks>
    50200584:	4318                	lw	a4,0(a4)
    50200586:	8f99                	sub	a5,a5,a4
    50200588:	00004717          	auipc	a4,0x4
    5020058c:	da070713          	addi	a4,a4,-608 # 50204328 <fkpr_tasks>
    50200590:	078e                	slli	a5,a5,0x3
    50200592:	97ba                	add	a5,a5,a4
    50200594:	639c                	ld	a5,0(a5)
    50200596:	fef43423          	sd	a5,-24(s0)
    5020059a:	4505                	li	a0,1
    5020059c:	52c010ef          	jal	ra,50201ac8 <allocPage>
    502005a0:	872a                	mv	a4,a0
    502005a2:	6785                	lui	a5,0x1
    502005a4:	00f706b3          	add	a3,a4,a5
    502005a8:	00006617          	auipc	a2,0x6
    502005ac:	06860613          	addi	a2,a2,104 # 50206610 <pcb>
    502005b0:	fe043703          	ld	a4,-32(s0)
    502005b4:	87ba                	mv	a5,a4
    502005b6:	078e                	slli	a5,a5,0x3
    502005b8:	8f99                	sub	a5,a5,a4
    502005ba:	0792                	slli	a5,a5,0x4
    502005bc:	97b2                	add	a5,a5,a2
    502005be:	e394                	sd	a3,0(a5)
    502005c0:	4505                	li	a0,1
    502005c2:	506010ef          	jal	ra,50201ac8 <allocPage>
    502005c6:	872a                	mv	a4,a0
    502005c8:	6785                	lui	a5,0x1
    502005ca:	00f706b3          	add	a3,a4,a5
    502005ce:	00006617          	auipc	a2,0x6
    502005d2:	04260613          	addi	a2,a2,66 # 50206610 <pcb>
    502005d6:	fe043703          	ld	a4,-32(s0)
    502005da:	87ba                	mv	a5,a4
    502005dc:	078e                	slli	a5,a5,0x3
    502005de:	8f99                	sub	a5,a5,a4
    502005e0:	0792                	slli	a5,a5,0x4
    502005e2:	97b2                	add	a5,a5,a2
    502005e4:	e794                	sd	a3,8(a5)
    502005e6:	fe843783          	ld	a5,-24(s0)
    502005ea:	4794                	lw	a3,8(a5)
    502005ec:	00006617          	auipc	a2,0x6
    502005f0:	02460613          	addi	a2,a2,36 # 50206610 <pcb>
    502005f4:	fe043703          	ld	a4,-32(s0)
    502005f8:	87ba                	mv	a5,a4
    502005fa:	078e                	slli	a5,a5,0x3
    502005fc:	8f99                	sub	a5,a5,a4
    502005fe:	0792                	slli	a5,a5,0x4
    50200600:	97b2                	add	a5,a5,a2
    50200602:	dbd4                	sw	a3,52(a5)
    50200604:	00006697          	auipc	a3,0x6
    50200608:	00c68693          	addi	a3,a3,12 # 50206610 <pcb>
    5020060c:	fe043703          	ld	a4,-32(s0)
    50200610:	87ba                	mv	a5,a4
    50200612:	078e                	slli	a5,a5,0x3
    50200614:	8f99                	sub	a5,a5,a4
    50200616:	0792                	slli	a5,a5,0x4
    50200618:	97b6                	add	a5,a5,a3
    5020061a:	6388                	ld	a0,0(a5)
    5020061c:	00006697          	auipc	a3,0x6
    50200620:	ff468693          	addi	a3,a3,-12 # 50206610 <pcb>
    50200624:	fe043703          	ld	a4,-32(s0)
    50200628:	87ba                	mv	a5,a4
    5020062a:	078e                	slli	a5,a5,0x3
    5020062c:	8f99                	sub	a5,a5,a4
    5020062e:	0792                	slli	a5,a5,0x4
    50200630:	97b6                	add	a5,a5,a3
    50200632:	678c                	ld	a1,8(a5)
    50200634:	fe843783          	ld	a5,-24(s0)
    50200638:	6390                	ld	a2,0(a5)
    5020063a:	fe043703          	ld	a4,-32(s0)
    5020063e:	87ba                	mv	a5,a4
    50200640:	078e                	slli	a5,a5,0x3
    50200642:	8f99                	sub	a5,a5,a4
    50200644:	0792                	slli	a5,a5,0x4
    50200646:	00006717          	auipc	a4,0x6
    5020064a:	fca70713          	addi	a4,a4,-54 # 50206610 <pcb>
    5020064e:	97ba                	add	a5,a5,a4
    50200650:	86be                	mv	a3,a5
    50200652:	d03ff0ef          	jal	ra,50200354 <init_pcb_stack>
    50200656:	00004797          	auipc	a5,0x4
    5020065a:	e4278793          	addi	a5,a5,-446 # 50204498 <process_id>
    5020065e:	4394                	lw	a3,0(a5)
    50200660:	00006617          	auipc	a2,0x6
    50200664:	fb060613          	addi	a2,a2,-80 # 50206610 <pcb>
    50200668:	fe043703          	ld	a4,-32(s0)
    5020066c:	87ba                	mv	a5,a4
    5020066e:	078e                	slli	a5,a5,0x3
    50200670:	8f99                	sub	a5,a5,a4
    50200672:	0792                	slli	a5,a5,0x4
    50200674:	97b2                	add	a5,a5,a2
    50200676:	db94                	sw	a3,48(a5)
    50200678:	00006697          	auipc	a3,0x6
    5020067c:	f9868693          	addi	a3,a3,-104 # 50206610 <pcb>
    50200680:	fe043703          	ld	a4,-32(s0)
    50200684:	87ba                	mv	a5,a4
    50200686:	078e                	slli	a5,a5,0x3
    50200688:	8f99                	sub	a5,a5,a4
    5020068a:	0792                	slli	a5,a5,0x4
    5020068c:	97b6                	add	a5,a5,a3
    5020068e:	4705                	li	a4,1
    50200690:	d3b8                	sw	a4,96(a5)
    50200692:	00006697          	auipc	a3,0x6
    50200696:	f7e68693          	addi	a3,a3,-130 # 50206610 <pcb>
    5020069a:	fe043703          	ld	a4,-32(s0)
    5020069e:	87ba                	mv	a5,a4
    502006a0:	078e                	slli	a5,a5,0x3
    502006a2:	8f99                	sub	a5,a5,a4
    502006a4:	0792                	slli	a5,a5,0x4
    502006a6:	97b6                	add	a5,a5,a3
    502006a8:	4709                	li	a4,2
    502006aa:	df98                	sw	a4,56(a5)
    502006ac:	00006697          	auipc	a3,0x6
    502006b0:	f6468693          	addi	a3,a3,-156 # 50206610 <pcb>
    502006b4:	fe043703          	ld	a4,-32(s0)
    502006b8:	87ba                	mv	a5,a4
    502006ba:	078e                	slli	a5,a5,0x3
    502006bc:	8f99                	sub	a5,a5,a4
    502006be:	0792                	slli	a5,a5,0x4
    502006c0:	97b6                	add	a5,a5,a3
    502006c2:	0207ae23          	sw	zero,60(a5)
    502006c6:	00006697          	auipc	a3,0x6
    502006ca:	f4a68693          	addi	a3,a3,-182 # 50206610 <pcb>
    502006ce:	fe043703          	ld	a4,-32(s0)
    502006d2:	87ba                	mv	a5,a4
    502006d4:	078e                	slli	a5,a5,0x3
    502006d6:	8f99                	sub	a5,a5,a4
    502006d8:	0792                	slli	a5,a5,0x4
    502006da:	97b6                	add	a5,a5,a3
    502006dc:	0407a023          	sw	zero,64(a5)
    502006e0:	356010ef          	jal	ra,50201a36 <get_ticks>
    502006e4:	862a                	mv	a2,a0
    502006e6:	00006697          	auipc	a3,0x6
    502006ea:	f2a68693          	addi	a3,a3,-214 # 50206610 <pcb>
    502006ee:	fe043703          	ld	a4,-32(s0)
    502006f2:	87ba                	mv	a5,a4
    502006f4:	078e                	slli	a5,a5,0x3
    502006f6:	8f99                	sub	a5,a5,a4
    502006f8:	0792                	slli	a5,a5,0x4
    502006fa:	97b6                	add	a5,a5,a3
    502006fc:	f7b0                	sd	a2,104(a5)
    502006fe:	fe043703          	ld	a4,-32(s0)
    50200702:	87ba                	mv	a5,a4
    50200704:	078e                	slli	a5,a5,0x3
    50200706:	8f99                	sub	a5,a5,a4
    50200708:	0792                	slli	a5,a5,0x4
    5020070a:	00006717          	auipc	a4,0x6
    5020070e:	f0670713          	addi	a4,a4,-250 # 50206610 <pcb>
    50200712:	97ba                	add	a5,a5,a4
    50200714:	85be                	mv	a1,a5
    50200716:	00004517          	auipc	a0,0x4
    5020071a:	87250513          	addi	a0,a0,-1934 # 50203f88 <ready_queue>
    5020071e:	6e1000ef          	jal	ra,502015fe <add_queue>
    50200722:	fe043783          	ld	a5,-32(s0)
    50200726:	0785                	addi	a5,a5,1
    50200728:	fef43023          	sd	a5,-32(s0)
    5020072c:	00004797          	auipc	a5,0x4
    50200730:	d6c78793          	addi	a5,a5,-660 # 50204498 <process_id>
    50200734:	439c                	lw	a5,0(a5)
    50200736:	2785                	addiw	a5,a5,1
    50200738:	0007871b          	sext.w	a4,a5
    5020073c:	00004797          	auipc	a5,0x4
    50200740:	d5c78793          	addi	a5,a5,-676 # 50204498 <process_id>
    50200744:	c398                	sw	a4,0(a5)
    50200746:	fe043703          	ld	a4,-32(s0)
    5020074a:	fd843783          	ld	a5,-40(s0)
    5020074e:	d6f764e3          	bltu	a4,a5,502004b6 <init_pcb+0x62>
    50200752:	00006797          	auipc	a5,0x6
    50200756:	eb678793          	addi	a5,a5,-330 # 50206608 <current_running>
    5020075a:	00003717          	auipc	a4,0x3
    5020075e:	7be70713          	addi	a4,a4,1982 # 50203f18 <pid0_pcb>
    50200762:	e398                	sd	a4,0(a5)
    50200764:	0001                	nop
    50200766:	70a2                	ld	ra,40(sp)
    50200768:	7402                	ld	s0,32(sp)
    5020076a:	6145                	addi	sp,sp,48
    5020076c:	8082                	ret

000000005020076e <init_syscall>:
    5020076e:	1101                	addi	sp,sp,-32
    50200770:	ec22                	sd	s0,24(sp)
    50200772:	1000                	addi	s0,sp,32
    50200774:	fe042623          	sw	zero,-20(s0)
    50200778:	a005                	j	50200798 <init_syscall+0x2a>
    5020077a:	00006717          	auipc	a4,0x6
    5020077e:	59670713          	addi	a4,a4,1430 # 50206d10 <syscall>
    50200782:	fec42783          	lw	a5,-20(s0)
    50200786:	078e                	slli	a5,a5,0x3
    50200788:	97ba                	add	a5,a5,a4
    5020078a:	0007b023          	sd	zero,0(a5)
    5020078e:	fec42783          	lw	a5,-20(s0)
    50200792:	2785                	addiw	a5,a5,1
    50200794:	fef42623          	sw	a5,-20(s0)
    50200798:	fec42783          	lw	a5,-20(s0)
    5020079c:	0007871b          	sext.w	a4,a5
    502007a0:	03f00793          	li	a5,63
    502007a4:	fce7dbe3          	bge	a5,a4,5020077a <init_syscall+0xc>
    502007a8:	00006797          	auipc	a5,0x6
    502007ac:	56878793          	addi	a5,a5,1384 # 50206d10 <syscall>
    502007b0:	00001717          	auipc	a4,0x1
    502007b4:	d5270713          	addi	a4,a4,-686 # 50201502 <do_sleep>
    502007b8:	eb98                	sd	a4,16(a5)
    502007ba:	00006797          	auipc	a5,0x6
    502007be:	55678793          	addi	a5,a5,1366 # 50206d10 <syscall>
    502007c2:	00001717          	auipc	a4,0x1
    502007c6:	c4270713          	addi	a4,a4,-958 # 50201404 <do_scheduler>
    502007ca:	ff98                	sd	a4,56(a5)
    502007cc:	00006797          	auipc	a5,0x6
    502007d0:	54478793          	addi	a5,a5,1348 # 50206d10 <syscall>
    502007d4:	00000717          	auipc	a4,0x0
    502007d8:	6b470713          	addi	a4,a4,1716 # 50200e88 <screen_write>
    502007dc:	f3d8                	sd	a4,160(a5)
    502007de:	00006797          	auipc	a5,0x6
    502007e2:	53278793          	addi	a5,a5,1330 # 50206d10 <syscall>
    502007e6:	00000717          	auipc	a4,0x0
    502007ea:	b0870713          	addi	a4,a4,-1272 # 502002ee <sbi_console_getchar>
    502007ee:	f7d8                	sd	a4,168(a5)
    502007f0:	00006797          	auipc	a5,0x6
    502007f4:	52078793          	addi	a5,a5,1312 # 50206d10 <syscall>
    502007f8:	00000717          	auipc	a4,0x0
    502007fc:	62c70713          	addi	a4,a4,1580 # 50200e24 <screen_move_cursor>
    50200800:	fbd8                	sd	a4,176(a5)
    50200802:	00006797          	auipc	a5,0x6
    50200806:	50e78793          	addi	a5,a5,1294 # 50206d10 <syscall>
    5020080a:	00000717          	auipc	a4,0x0
    5020080e:	6e070713          	addi	a4,a4,1760 # 50200eea <screen_reflush>
    50200812:	ffd8                	sd	a4,184(a5)
    50200814:	00006797          	auipc	a5,0x6
    50200818:	4fc78793          	addi	a5,a5,1276 # 50206d10 <syscall>
    5020081c:	00001717          	auipc	a4,0x1
    50200820:	87c70713          	addi	a4,a4,-1924 # 50201098 <mutex_get>
    50200824:	e7f8                	sd	a4,200(a5)
    50200826:	00006797          	auipc	a5,0x6
    5020082a:	4ea78793          	addi	a5,a5,1258 # 50206d10 <syscall>
    5020082e:	00001717          	auipc	a4,0x1
    50200832:	8c270713          	addi	a4,a4,-1854 # 502010f0 <mutex_lock>
    50200836:	ebf8                	sd	a4,208(a5)
    50200838:	00006797          	auipc	a5,0x6
    5020083c:	4d878793          	addi	a5,a5,1240 # 50206d10 <syscall>
    50200840:	00001717          	auipc	a4,0x1
    50200844:	8e870713          	addi	a4,a4,-1816 # 50201128 <mutex_unlock>
    50200848:	eff8                	sd	a4,216(a5)
    5020084a:	00006797          	auipc	a5,0x6
    5020084e:	4c678793          	addi	a5,a5,1222 # 50206d10 <syscall>
    50200852:	00001717          	auipc	a4,0x1
    50200856:	22870713          	addi	a4,a4,552 # 50201a7a <get_time_base>
    5020085a:	fbf8                	sd	a4,240(a5)
    5020085c:	00006797          	auipc	a5,0x6
    50200860:	4b478793          	addi	a5,a5,1204 # 50206d10 <syscall>
    50200864:	00001717          	auipc	a4,0x1
    50200868:	1d270713          	addi	a4,a4,466 # 50201a36 <get_ticks>
    5020086c:	fff8                	sd	a4,248(a5)
    5020086e:	00006797          	auipc	a5,0x6
    50200872:	4a278793          	addi	a5,a5,1186 # 50206d10 <syscall>
    50200876:	00001717          	auipc	a4,0x1
    5020087a:	e4270713          	addi	a4,a4,-446 # 502016b8 <fork>
    5020087e:	10e7bc23          	sd	a4,280(a5)
    50200882:	00006797          	auipc	a5,0x6
    50200886:	48e78793          	addi	a5,a5,1166 # 50206d10 <syscall>
    5020088a:	00001717          	auipc	a4,0x1
    5020088e:	dd870713          	addi	a4,a4,-552 # 50201662 <do_priority>
    50200892:	12e7b023          	sd	a4,288(a5)
    50200896:	0001                	nop
    50200898:	6462                	ld	s0,24(sp)
    5020089a:	6105                	addi	sp,sp,32
    5020089c:	8082                	ret

000000005020089e <main>:
    5020089e:	1141                	addi	sp,sp,-16
    502008a0:	e406                	sd	ra,8(sp)
    502008a2:	e022                	sd	s0,0(sp)
    502008a4:	0800                	addi	s0,sp,16
    502008a6:	bafff0ef          	jal	ra,50200454 <init_pcb>
    502008aa:	00003517          	auipc	a0,0x3
    502008ae:	ef650513          	addi	a0,a0,-266 # 502037a0 <prior_task2+0x44>
    502008b2:	4bd010ef          	jal	ra,5020256e <printk>
    502008b6:	4501                	li	a0,0
    502008b8:	a75ff0ef          	jal	ra,5020032c <sbi_read_fdt>
    502008bc:	87aa                	mv	a5,a0
    502008be:	0007871b          	sext.w	a4,a5
    502008c2:	84018793          	addi	a5,gp,-1984 # 502044c8 <time_base>
    502008c6:	c398                	sw	a4,0(a5)
    502008c8:	170000ef          	jal	ra,50200a38 <init_exception>
    502008cc:	00003517          	auipc	a0,0x3
    502008d0:	f0450513          	addi	a0,a0,-252 # 502037d0 <prior_task2+0x74>
    502008d4:	49b010ef          	jal	ra,5020256e <printk>
    502008d8:	e97ff0ef          	jal	ra,5020076e <init_syscall>
    502008dc:	00003517          	auipc	a0,0x3
    502008e0:	f3450513          	addi	a0,a0,-204 # 50203810 <prior_task2+0xb4>
    502008e4:	48b010ef          	jal	ra,5020256e <printk>
    502008e8:	488000ef          	jal	ra,50200d70 <init_screen>
    502008ec:	00003517          	auipc	a0,0x3
    502008f0:	f5c50513          	addi	a0,a0,-164 # 50203848 <prior_task2+0xec>
    502008f4:	47b010ef          	jal	ra,5020256e <printk>
    502008f8:	13e010ef          	jal	ra,50201a36 <get_ticks>
    502008fc:	872a                	mv	a4,a0
    502008fe:	84018793          	addi	a5,gp,-1984 # 502044c8 <time_base>
    50200902:	439c                	lw	a5,0(a5)
    50200904:	86be                	mv	a3,a5
    50200906:	3e800793          	li	a5,1000
    5020090a:	02f6d7bb          	divuw	a5,a3,a5
    5020090e:	2781                	sext.w	a5,a5
    50200910:	1782                	slli	a5,a5,0x20
    50200912:	9381                	srli	a5,a5,0x20
    50200914:	97ba                	add	a5,a5,a4
    50200916:	853e                	mv	a0,a5
    50200918:	9f5ff0ef          	jal	ra,5020030c <sbi_set_timer>
    5020091c:	facff0ef          	jal	ra,502000c8 <enable_interrupt>
    50200920:	10500073          	wfi
    50200924:	bfe5                	j	5020091c <main+0x7e>

0000000050200926 <_panic>:
    50200926:	7179                	addi	sp,sp,-48
    50200928:	f406                	sd	ra,40(sp)
    5020092a:	f022                	sd	s0,32(sp)
    5020092c:	1800                	addi	s0,sp,48
    5020092e:	fea43423          	sd	a0,-24(s0)
    50200932:	87ae                	mv	a5,a1
    50200934:	fcc43c23          	sd	a2,-40(s0)
    50200938:	fef42223          	sw	a5,-28(s0)
    5020093c:	fe442783          	lw	a5,-28(s0)
    50200940:	86be                	mv	a3,a5
    50200942:	fe843603          	ld	a2,-24(s0)
    50200946:	fd843583          	ld	a1,-40(s0)
    5020094a:	00003517          	auipc	a0,0x3
    5020094e:	02e50513          	addi	a0,a0,46 # 50203978 <prior_task2+0x21c>
    50200952:	41d010ef          	jal	ra,5020256e <printk>
    50200956:	a001                	j	50200956 <_panic+0x30>

0000000050200958 <sbi_set_timer>:
    50200958:	1101                	addi	sp,sp,-32
    5020095a:	ec22                	sd	s0,24(sp)
    5020095c:	1000                	addi	s0,sp,32
    5020095e:	fea43423          	sd	a0,-24(s0)
    50200962:	fe843503          	ld	a0,-24(s0)
    50200966:	4581                	li	a1,0
    50200968:	4601                	li	a2,0
    5020096a:	4881                	li	a7,0
    5020096c:	00000073          	ecall
    50200970:	0001                	nop
    50200972:	6462                	ld	s0,24(sp)
    50200974:	6105                	addi	sp,sp,32
    50200976:	8082                	ret

0000000050200978 <reset_irq_timer>:
    50200978:	1141                	addi	sp,sp,-16
    5020097a:	e406                	sd	ra,8(sp)
    5020097c:	e022                	sd	s0,0(sp)
    5020097e:	0800                	addi	s0,sp,16
    50200980:	56a000ef          	jal	ra,50200eea <screen_reflush>
    50200984:	016010ef          	jal	ra,5020199a <time_checking>
    50200988:	0ae010ef          	jal	ra,50201a36 <get_ticks>
    5020098c:	872a                	mv	a4,a0
    5020098e:	000257b7          	lui	a5,0x25
    50200992:	9f078793          	addi	a5,a5,-1552 # 249f0 <_start-0x501db610>
    50200996:	97ba                	add	a5,a5,a4
    50200998:	853e                	mv	a0,a5
    5020099a:	fbfff0ef          	jal	ra,50200958 <sbi_set_timer>
    5020099e:	267000ef          	jal	ra,50201404 <do_scheduler>
    502009a2:	0001                	nop
    502009a4:	60a2                	ld	ra,8(sp)
    502009a6:	6402                	ld	s0,0(sp)
    502009a8:	0141                	addi	sp,sp,16
    502009aa:	8082                	ret

00000000502009ac <interrupt_helper>:
    502009ac:	7139                	addi	sp,sp,-64
    502009ae:	fc06                	sd	ra,56(sp)
    502009b0:	f822                	sd	s0,48(sp)
    502009b2:	0080                	addi	s0,sp,64
    502009b4:	fca43c23          	sd	a0,-40(s0)
    502009b8:	fcb43823          	sd	a1,-48(s0)
    502009bc:	fcc43423          	sd	a2,-56(s0)
    502009c0:	fc843783          	ld	a5,-56(s0)
    502009c4:	0007d763          	bgez	a5,502009d2 <interrupt_helper+0x26>
    502009c8:	00006797          	auipc	a5,0x6
    502009cc:	ae078793          	addi	a5,a5,-1312 # 502064a8 <irq_table>
    502009d0:	a029                	j	502009da <interrupt_helper+0x2e>
    502009d2:	00006797          	auipc	a5,0x6
    502009d6:	a4e78793          	addi	a5,a5,-1458 # 50206420 <exc_table>
    502009da:	fef43423          	sd	a5,-24(s0)
    502009de:	fc843703          	ld	a4,-56(s0)
    502009e2:	800007b7          	lui	a5,0x80000
    502009e6:	fff7c793          	not	a5,a5
    502009ea:	8ff9                	and	a5,a5,a4
    502009ec:	fef43023          	sd	a5,-32(s0)
    502009f0:	fe043783          	ld	a5,-32(s0)
    502009f4:	078e                	slli	a5,a5,0x3
    502009f6:	fe843703          	ld	a4,-24(s0)
    502009fa:	97ba                	add	a5,a5,a4
    502009fc:	639c                	ld	a5,0(a5)
    502009fe:	fc843603          	ld	a2,-56(s0)
    50200a02:	fd043583          	ld	a1,-48(s0)
    50200a06:	fd843503          	ld	a0,-40(s0)
    50200a0a:	9782                	jalr	a5
    50200a0c:	0001                	nop
    50200a0e:	70e2                	ld	ra,56(sp)
    50200a10:	7442                	ld	s0,48(sp)
    50200a12:	6121                	addi	sp,sp,64
    50200a14:	8082                	ret

0000000050200a16 <handle_int>:
    50200a16:	7179                	addi	sp,sp,-48
    50200a18:	f406                	sd	ra,40(sp)
    50200a1a:	f022                	sd	s0,32(sp)
    50200a1c:	1800                	addi	s0,sp,48
    50200a1e:	fea43423          	sd	a0,-24(s0)
    50200a22:	feb43023          	sd	a1,-32(s0)
    50200a26:	fcc43c23          	sd	a2,-40(s0)
    50200a2a:	f4fff0ef          	jal	ra,50200978 <reset_irq_timer>
    50200a2e:	0001                	nop
    50200a30:	70a2                	ld	ra,40(sp)
    50200a32:	7402                	ld	s0,32(sp)
    50200a34:	6145                	addi	sp,sp,48
    50200a36:	8082                	ret

0000000050200a38 <init_exception>:
    50200a38:	1101                	addi	sp,sp,-32
    50200a3a:	ec06                	sd	ra,24(sp)
    50200a3c:	e822                	sd	s0,16(sp)
    50200a3e:	1000                	addi	s0,sp,32
    50200a40:	fe042623          	sw	zero,-20(s0)
    50200a44:	a01d                	j	50200a6a <init_exception+0x32>
    50200a46:	00006717          	auipc	a4,0x6
    50200a4a:	a6270713          	addi	a4,a4,-1438 # 502064a8 <irq_table>
    50200a4e:	fec42783          	lw	a5,-20(s0)
    50200a52:	078e                	slli	a5,a5,0x3
    50200a54:	97ba                	add	a5,a5,a4
    50200a56:	00000717          	auipc	a4,0x0
    50200a5a:	fc070713          	addi	a4,a4,-64 # 50200a16 <handle_int>
    50200a5e:	e398                	sd	a4,0(a5)
    50200a60:	fec42783          	lw	a5,-20(s0)
    50200a64:	2785                	addiw	a5,a5,1
    50200a66:	fef42623          	sw	a5,-20(s0)
    50200a6a:	fec42783          	lw	a5,-20(s0)
    50200a6e:	0007871b          	sext.w	a4,a5
    50200a72:	47ad                	li	a5,11
    50200a74:	fce7d9e3          	bge	a5,a4,50200a46 <init_exception+0xe>
    50200a78:	fe042623          	sw	zero,-20(s0)
    50200a7c:	a01d                	j	50200aa2 <init_exception+0x6a>
    50200a7e:	00006717          	auipc	a4,0x6
    50200a82:	9a270713          	addi	a4,a4,-1630 # 50206420 <exc_table>
    50200a86:	fec42783          	lw	a5,-20(s0)
    50200a8a:	078e                	slli	a5,a5,0x3
    50200a8c:	97ba                	add	a5,a5,a4
    50200a8e:	00000717          	auipc	a4,0x0
    50200a92:	04270713          	addi	a4,a4,66 # 50200ad0 <handle_other>
    50200a96:	e398                	sd	a4,0(a5)
    50200a98:	fec42783          	lw	a5,-20(s0)
    50200a9c:	2785                	addiw	a5,a5,1
    50200a9e:	fef42623          	sw	a5,-20(s0)
    50200aa2:	fec42783          	lw	a5,-20(s0)
    50200aa6:	0007871b          	sext.w	a4,a5
    50200aaa:	47bd                	li	a5,15
    50200aac:	fce7d9e3          	bge	a5,a4,50200a7e <init_exception+0x46>
    50200ab0:	00006797          	auipc	a5,0x6
    50200ab4:	97078793          	addi	a5,a5,-1680 # 50206420 <exc_table>
    50200ab8:	00001717          	auipc	a4,0x1
    50200abc:	08870713          	addi	a4,a4,136 # 50201b40 <handle_syscall>
    50200ac0:	e3b8                	sd	a4,64(a5)
    50200ac2:	d9aff0ef          	jal	ra,5020005c <setup_exception>
    50200ac6:	0001                	nop
    50200ac8:	60e2                	ld	ra,24(sp)
    50200aca:	6442                	ld	s0,16(sp)
    50200acc:	6105                	addi	sp,sp,32
    50200ace:	8082                	ret

0000000050200ad0 <handle_other>:
    50200ad0:	7129                	addi	sp,sp,-320
    50200ad2:	fe06                	sd	ra,312(sp)
    50200ad4:	fa22                	sd	s0,304(sp)
    50200ad6:	0280                	addi	s0,sp,320
    50200ad8:	eca43c23          	sd	a0,-296(s0)
    50200adc:	ecb43823          	sd	a1,-304(s0)
    50200ae0:	ecc43423          	sd	a2,-312(s0)
    50200ae4:	00003717          	auipc	a4,0x3
    50200ae8:	f2c70713          	addi	a4,a4,-212 # 50203a10 <prior_task2+0x2b4>
    50200aec:	ee840793          	addi	a5,s0,-280
    50200af0:	86ba                	mv	a3,a4
    50200af2:	10000713          	li	a4,256
    50200af6:	863a                	mv	a2,a4
    50200af8:	85b6                	mv	a1,a3
    50200afa:	853e                	mv	a0,a5
    50200afc:	204020ef          	jal	ra,50202d00 <memcpy>
    50200b00:	fe042623          	sw	zero,-20(s0)
    50200b04:	a061                	j	50200b8c <handle_other+0xbc>
    50200b06:	fe042423          	sw	zero,-24(s0)
    50200b0a:	a0a9                	j	50200b54 <handle_other+0x84>
    50200b0c:	fec42703          	lw	a4,-20(s0)
    50200b10:	fe842783          	lw	a5,-24(s0)
    50200b14:	9fb9                	addw	a5,a5,a4
    50200b16:	2781                	sext.w	a5,a5
    50200b18:	078e                	slli	a5,a5,0x3
    50200b1a:	ff040713          	addi	a4,s0,-16
    50200b1e:	97ba                	add	a5,a5,a4
    50200b20:	ef87b683          	ld	a3,-264(a5)
    50200b24:	fec42703          	lw	a4,-20(s0)
    50200b28:	fe842783          	lw	a5,-24(s0)
    50200b2c:	9fb9                	addw	a5,a5,a4
    50200b2e:	2781                	sext.w	a5,a5
    50200b30:	ed843703          	ld	a4,-296(s0)
    50200b34:	078e                	slli	a5,a5,0x3
    50200b36:	97ba                	add	a5,a5,a4
    50200b38:	639c                	ld	a5,0(a5)
    50200b3a:	863e                	mv	a2,a5
    50200b3c:	85b6                	mv	a1,a3
    50200b3e:	00003517          	auipc	a0,0x3
    50200b42:	e6250513          	addi	a0,a0,-414 # 502039a0 <prior_task2+0x244>
    50200b46:	229010ef          	jal	ra,5020256e <printk>
    50200b4a:	fe842783          	lw	a5,-24(s0)
    50200b4e:	2785                	addiw	a5,a5,1
    50200b50:	fef42423          	sw	a5,-24(s0)
    50200b54:	fe842783          	lw	a5,-24(s0)
    50200b58:	0007871b          	sext.w	a4,a5
    50200b5c:	4789                	li	a5,2
    50200b5e:	00e7cc63          	blt	a5,a4,50200b76 <handle_other+0xa6>
    50200b62:	fec42703          	lw	a4,-20(s0)
    50200b66:	fe842783          	lw	a5,-24(s0)
    50200b6a:	9fb9                	addw	a5,a5,a4
    50200b6c:	2781                	sext.w	a5,a5
    50200b6e:	873e                	mv	a4,a5
    50200b70:	47fd                	li	a5,31
    50200b72:	f8e7dde3          	bge	a5,a4,50200b0c <handle_other+0x3c>
    50200b76:	00003517          	auipc	a0,0x3
    50200b7a:	e3a50513          	addi	a0,a0,-454 # 502039b0 <prior_task2+0x254>
    50200b7e:	1f1010ef          	jal	ra,5020256e <printk>
    50200b82:	fec42783          	lw	a5,-20(s0)
    50200b86:	278d                	addiw	a5,a5,3
    50200b88:	fef42623          	sw	a5,-20(s0)
    50200b8c:	fec42783          	lw	a5,-20(s0)
    50200b90:	0007871b          	sext.w	a4,a5
    50200b94:	47fd                	li	a5,31
    50200b96:	f6e7d8e3          	bge	a5,a4,50200b06 <handle_other+0x36>
    50200b9a:	ed843783          	ld	a5,-296(s0)
    50200b9e:	1007b703          	ld	a4,256(a5)
    50200ba2:	ed843783          	ld	a5,-296(s0)
    50200ba6:	1107b603          	ld	a2,272(a5)
    50200baa:	ed843783          	ld	a5,-296(s0)
    50200bae:	1187b783          	ld	a5,280(a5)
    50200bb2:	86be                	mv	a3,a5
    50200bb4:	85ba                	mv	a1,a4
    50200bb6:	00003517          	auipc	a0,0x3
    50200bba:	e0250513          	addi	a0,a0,-510 # 502039b8 <prior_task2+0x25c>
    50200bbe:	1b1010ef          	jal	ra,5020256e <printk>
    50200bc2:	ed843783          	ld	a5,-296(s0)
    50200bc6:	1087b783          	ld	a5,264(a5)
    50200bca:	85be                	mv	a1,a5
    50200bcc:	00003517          	auipc	a0,0x3
    50200bd0:	e1c50513          	addi	a0,a0,-484 # 502039e8 <prior_task2+0x28c>
    50200bd4:	19b010ef          	jal	ra,5020256e <printk>
    50200bd8:	00003617          	auipc	a2,0x3
    50200bdc:	f3860613          	addi	a2,a2,-200 # 50203b10 <__FUNCTION__.1400>
    50200be0:	04c00593          	li	a1,76
    50200be4:	00003517          	auipc	a0,0x3
    50200be8:	e1450513          	addi	a0,a0,-492 # 502039f8 <prior_task2+0x29c>
    50200bec:	d3bff0ef          	jal	ra,50200926 <_panic>
    50200bf0:	0001                	nop
    50200bf2:	70f2                	ld	ra,312(sp)
    50200bf4:	7452                	ld	s0,304(sp)
    50200bf6:	6131                	addi	sp,sp,320
    50200bf8:	8082                	ret

0000000050200bfa <vt100_move_cursor>:
    50200bfa:	1101                	addi	sp,sp,-32
    50200bfc:	ec06                	sd	ra,24(sp)
    50200bfe:	e822                	sd	s0,16(sp)
    50200c00:	1000                	addi	s0,sp,32
    50200c02:	87aa                	mv	a5,a0
    50200c04:	872e                	mv	a4,a1
    50200c06:	fef42623          	sw	a5,-20(s0)
    50200c0a:	87ba                	mv	a5,a4
    50200c0c:	fef42423          	sw	a5,-24(s0)
    50200c10:	ca0ff0ef          	jal	ra,502000b0 <disable_preempt>
    50200c14:	fec42703          	lw	a4,-20(s0)
    50200c18:	fe842783          	lw	a5,-24(s0)
    50200c1c:	86ba                	mv	a3,a4
    50200c1e:	863e                	mv	a2,a5
    50200c20:	45ed                	li	a1,27
    50200c22:	00003517          	auipc	a0,0x3
    50200c26:	efe50513          	addi	a0,a0,-258 # 50203b20 <__FUNCTION__.1400+0x10>
    50200c2a:	145010ef          	jal	ra,5020256e <printk>
    50200c2e:	00006797          	auipc	a5,0x6
    50200c32:	9da78793          	addi	a5,a5,-1574 # 50206608 <current_running>
    50200c36:	639c                	ld	a5,0(a5)
    50200c38:	fec42703          	lw	a4,-20(s0)
    50200c3c:	dfd8                	sw	a4,60(a5)
    50200c3e:	00006797          	auipc	a5,0x6
    50200c42:	9ca78793          	addi	a5,a5,-1590 # 50206608 <current_running>
    50200c46:	639c                	ld	a5,0(a5)
    50200c48:	fe842703          	lw	a4,-24(s0)
    50200c4c:	c3b8                	sw	a4,64(a5)
    50200c4e:	c3aff0ef          	jal	ra,50200088 <enable_preempt>
    50200c52:	0001                	nop
    50200c54:	60e2                	ld	ra,24(sp)
    50200c56:	6442                	ld	s0,16(sp)
    50200c58:	6105                	addi	sp,sp,32
    50200c5a:	8082                	ret

0000000050200c5c <vt100_clear>:
    50200c5c:	1141                	addi	sp,sp,-16
    50200c5e:	e406                	sd	ra,8(sp)
    50200c60:	e022                	sd	s0,0(sp)
    50200c62:	0800                	addi	s0,sp,16
    50200c64:	45ed                	li	a1,27
    50200c66:	00003517          	auipc	a0,0x3
    50200c6a:	eca50513          	addi	a0,a0,-310 # 50203b30 <__FUNCTION__.1400+0x20>
    50200c6e:	101010ef          	jal	ra,5020256e <printk>
    50200c72:	0001                	nop
    50200c74:	60a2                	ld	ra,8(sp)
    50200c76:	6402                	ld	s0,0(sp)
    50200c78:	0141                	addi	sp,sp,16
    50200c7a:	8082                	ret

0000000050200c7c <vt100_hidden_cursor>:
    50200c7c:	1141                	addi	sp,sp,-16
    50200c7e:	e406                	sd	ra,8(sp)
    50200c80:	e022                	sd	s0,0(sp)
    50200c82:	0800                	addi	s0,sp,16
    50200c84:	45ed                	li	a1,27
    50200c86:	00003517          	auipc	a0,0x3
    50200c8a:	eb250513          	addi	a0,a0,-334 # 50203b38 <__FUNCTION__.1400+0x28>
    50200c8e:	0e1010ef          	jal	ra,5020256e <printk>
    50200c92:	0001                	nop
    50200c94:	60a2                	ld	ra,8(sp)
    50200c96:	6402                	ld	s0,0(sp)
    50200c98:	0141                	addi	sp,sp,16
    50200c9a:	8082                	ret

0000000050200c9c <screen_write_ch>:
    50200c9c:	1101                	addi	sp,sp,-32
    50200c9e:	ec22                	sd	s0,24(sp)
    50200ca0:	1000                	addi	s0,sp,32
    50200ca2:	87aa                	mv	a5,a0
    50200ca4:	fef407a3          	sb	a5,-17(s0)
    50200ca8:	fef44783          	lbu	a5,-17(s0)
    50200cac:	0ff7f713          	andi	a4,a5,255
    50200cb0:	47a9                	li	a5,10
    50200cb2:	02f71663          	bne	a4,a5,50200cde <screen_write_ch+0x42>
    50200cb6:	00006797          	auipc	a5,0x6
    50200cba:	85278793          	addi	a5,a5,-1966 # 50206508 <screen_cursor_x>
    50200cbe:	4705                	li	a4,1
    50200cc0:	c398                	sw	a4,0(a5)
    50200cc2:	00006797          	auipc	a5,0x6
    50200cc6:	84a78793          	addi	a5,a5,-1974 # 5020650c <screen_cursor_y>
    50200cca:	439c                	lw	a5,0(a5)
    50200ccc:	2785                	addiw	a5,a5,1
    50200cce:	0007871b          	sext.w	a4,a5
    50200cd2:	00006797          	auipc	a5,0x6
    50200cd6:	83a78793          	addi	a5,a5,-1990 # 5020650c <screen_cursor_y>
    50200cda:	c398                	sw	a4,0(a5)
    50200cdc:	a085                	j	50200d3c <screen_write_ch+0xa0>
    50200cde:	00006797          	auipc	a5,0x6
    50200ce2:	82e78793          	addi	a5,a5,-2002 # 5020650c <screen_cursor_y>
    50200ce6:	439c                	lw	a5,0(a5)
    50200ce8:	37fd                	addiw	a5,a5,-1
    50200cea:	2781                	sext.w	a5,a5
    50200cec:	873e                	mv	a4,a5
    50200cee:	87ba                	mv	a5,a4
    50200cf0:	0027979b          	slliw	a5,a5,0x2
    50200cf4:	9fb9                	addw	a5,a5,a4
    50200cf6:	0047979b          	slliw	a5,a5,0x4
    50200cfa:	0007871b          	sext.w	a4,a5
    50200cfe:	00006797          	auipc	a5,0x6
    50200d02:	80a78793          	addi	a5,a5,-2038 # 50206508 <screen_cursor_x>
    50200d06:	439c                	lw	a5,0(a5)
    50200d08:	37fd                	addiw	a5,a5,-1
    50200d0a:	2781                	sext.w	a5,a5
    50200d0c:	9fb9                	addw	a5,a5,a4
    50200d0e:	2781                	sext.w	a5,a5
    50200d10:	00003717          	auipc	a4,0x3
    50200d14:	7c070713          	addi	a4,a4,1984 # 502044d0 <new_screen>
    50200d18:	97ba                	add	a5,a5,a4
    50200d1a:	fef44703          	lbu	a4,-17(s0)
    50200d1e:	00e78023          	sb	a4,0(a5)
    50200d22:	00005797          	auipc	a5,0x5
    50200d26:	7e678793          	addi	a5,a5,2022 # 50206508 <screen_cursor_x>
    50200d2a:	439c                	lw	a5,0(a5)
    50200d2c:	2785                	addiw	a5,a5,1
    50200d2e:	0007871b          	sext.w	a4,a5
    50200d32:	00005797          	auipc	a5,0x5
    50200d36:	7d678793          	addi	a5,a5,2006 # 50206508 <screen_cursor_x>
    50200d3a:	c398                	sw	a4,0(a5)
    50200d3c:	00006797          	auipc	a5,0x6
    50200d40:	8cc78793          	addi	a5,a5,-1844 # 50206608 <current_running>
    50200d44:	639c                	ld	a5,0(a5)
    50200d46:	00005717          	auipc	a4,0x5
    50200d4a:	7c270713          	addi	a4,a4,1986 # 50206508 <screen_cursor_x>
    50200d4e:	4318                	lw	a4,0(a4)
    50200d50:	dfd8                	sw	a4,60(a5)
    50200d52:	00006797          	auipc	a5,0x6
    50200d56:	8b678793          	addi	a5,a5,-1866 # 50206608 <current_running>
    50200d5a:	639c                	ld	a5,0(a5)
    50200d5c:	00005717          	auipc	a4,0x5
    50200d60:	7b070713          	addi	a4,a4,1968 # 5020650c <screen_cursor_y>
    50200d64:	4318                	lw	a4,0(a4)
    50200d66:	c3b8                	sw	a4,64(a5)
    50200d68:	0001                	nop
    50200d6a:	6462                	ld	s0,24(sp)
    50200d6c:	6105                	addi	sp,sp,32
    50200d6e:	8082                	ret

0000000050200d70 <init_screen>:
    50200d70:	1141                	addi	sp,sp,-16
    50200d72:	e406                	sd	ra,8(sp)
    50200d74:	e022                	sd	s0,0(sp)
    50200d76:	0800                	addi	s0,sp,16
    50200d78:	f05ff0ef          	jal	ra,50200c7c <vt100_hidden_cursor>
    50200d7c:	ee1ff0ef          	jal	ra,50200c5c <vt100_clear>
    50200d80:	0001                	nop
    50200d82:	60a2                	ld	ra,8(sp)
    50200d84:	6402                	ld	s0,0(sp)
    50200d86:	0141                	addi	sp,sp,16
    50200d88:	8082                	ret

0000000050200d8a <screen_clear>:
    50200d8a:	1101                	addi	sp,sp,-32
    50200d8c:	ec06                	sd	ra,24(sp)
    50200d8e:	e822                	sd	s0,16(sp)
    50200d90:	1000                	addi	s0,sp,32
    50200d92:	fe042623          	sw	zero,-20(s0)
    50200d96:	a8a1                	j	50200dee <screen_clear+0x64>
    50200d98:	fe042423          	sw	zero,-24(s0)
    50200d9c:	a825                	j	50200dd4 <screen_clear+0x4a>
    50200d9e:	fec42703          	lw	a4,-20(s0)
    50200da2:	87ba                	mv	a5,a4
    50200da4:	0027979b          	slliw	a5,a5,0x2
    50200da8:	9fb9                	addw	a5,a5,a4
    50200daa:	0047979b          	slliw	a5,a5,0x4
    50200dae:	2781                	sext.w	a5,a5
    50200db0:	fe842703          	lw	a4,-24(s0)
    50200db4:	9fb9                	addw	a5,a5,a4
    50200db6:	2781                	sext.w	a5,a5
    50200db8:	00003717          	auipc	a4,0x3
    50200dbc:	71870713          	addi	a4,a4,1816 # 502044d0 <new_screen>
    50200dc0:	97ba                	add	a5,a5,a4
    50200dc2:	02000713          	li	a4,32
    50200dc6:	00e78023          	sb	a4,0(a5)
    50200dca:	fe842783          	lw	a5,-24(s0)
    50200dce:	2785                	addiw	a5,a5,1
    50200dd0:	fef42423          	sw	a5,-24(s0)
    50200dd4:	fe842783          	lw	a5,-24(s0)
    50200dd8:	0007871b          	sext.w	a4,a5
    50200ddc:	04f00793          	li	a5,79
    50200de0:	fae7dfe3          	bge	a5,a4,50200d9e <screen_clear+0x14>
    50200de4:	fec42783          	lw	a5,-20(s0)
    50200de8:	2785                	addiw	a5,a5,1
    50200dea:	fef42623          	sw	a5,-20(s0)
    50200dee:	fec42783          	lw	a5,-20(s0)
    50200df2:	0007871b          	sext.w	a4,a5
    50200df6:	03100793          	li	a5,49
    50200dfa:	f8e7dfe3          	bge	a5,a4,50200d98 <screen_clear+0xe>
    50200dfe:	00005797          	auipc	a5,0x5
    50200e02:	70a78793          	addi	a5,a5,1802 # 50206508 <screen_cursor_x>
    50200e06:	4705                	li	a4,1
    50200e08:	c398                	sw	a4,0(a5)
    50200e0a:	00005797          	auipc	a5,0x5
    50200e0e:	70278793          	addi	a5,a5,1794 # 5020650c <screen_cursor_y>
    50200e12:	4705                	li	a4,1
    50200e14:	c398                	sw	a4,0(a5)
    50200e16:	0d4000ef          	jal	ra,50200eea <screen_reflush>
    50200e1a:	0001                	nop
    50200e1c:	60e2                	ld	ra,24(sp)
    50200e1e:	6442                	ld	s0,16(sp)
    50200e20:	6105                	addi	sp,sp,32
    50200e22:	8082                	ret

0000000050200e24 <screen_move_cursor>:
    50200e24:	1101                	addi	sp,sp,-32
    50200e26:	ec22                	sd	s0,24(sp)
    50200e28:	1000                	addi	s0,sp,32
    50200e2a:	87aa                	mv	a5,a0
    50200e2c:	872e                	mv	a4,a1
    50200e2e:	fef42623          	sw	a5,-20(s0)
    50200e32:	87ba                	mv	a5,a4
    50200e34:	fef42423          	sw	a5,-24(s0)
    50200e38:	00005797          	auipc	a5,0x5
    50200e3c:	6d078793          	addi	a5,a5,1744 # 50206508 <screen_cursor_x>
    50200e40:	fec42703          	lw	a4,-20(s0)
    50200e44:	c398                	sw	a4,0(a5)
    50200e46:	00005797          	auipc	a5,0x5
    50200e4a:	6c678793          	addi	a5,a5,1734 # 5020650c <screen_cursor_y>
    50200e4e:	fe842703          	lw	a4,-24(s0)
    50200e52:	c398                	sw	a4,0(a5)
    50200e54:	00005797          	auipc	a5,0x5
    50200e58:	7b478793          	addi	a5,a5,1972 # 50206608 <current_running>
    50200e5c:	639c                	ld	a5,0(a5)
    50200e5e:	00005717          	auipc	a4,0x5
    50200e62:	6aa70713          	addi	a4,a4,1706 # 50206508 <screen_cursor_x>
    50200e66:	4318                	lw	a4,0(a4)
    50200e68:	dfd8                	sw	a4,60(a5)
    50200e6a:	00005797          	auipc	a5,0x5
    50200e6e:	79e78793          	addi	a5,a5,1950 # 50206608 <current_running>
    50200e72:	639c                	ld	a5,0(a5)
    50200e74:	00005717          	auipc	a4,0x5
    50200e78:	69870713          	addi	a4,a4,1688 # 5020650c <screen_cursor_y>
    50200e7c:	4318                	lw	a4,0(a4)
    50200e7e:	c3b8                	sw	a4,64(a5)
    50200e80:	0001                	nop
    50200e82:	6462                	ld	s0,24(sp)
    50200e84:	6105                	addi	sp,sp,32
    50200e86:	8082                	ret

0000000050200e88 <screen_write>:
    50200e88:	7179                	addi	sp,sp,-48
    50200e8a:	f406                	sd	ra,40(sp)
    50200e8c:	f022                	sd	s0,32(sp)
    50200e8e:	1800                	addi	s0,sp,48
    50200e90:	fca43c23          	sd	a0,-40(s0)
    50200e94:	fe042623          	sw	zero,-20(s0)
    50200e98:	fd843503          	ld	a0,-40(s0)
    50200e9c:	511000ef          	jal	ra,50201bac <kstrlen>
    50200ea0:	87aa                	mv	a5,a0
    50200ea2:	fef42423          	sw	a5,-24(s0)
    50200ea6:	044000ef          	jal	ra,50200eea <screen_reflush>
    50200eaa:	fe042623          	sw	zero,-20(s0)
    50200eae:	a005                	j	50200ece <screen_write+0x46>
    50200eb0:	fec42783          	lw	a5,-20(s0)
    50200eb4:	fd843703          	ld	a4,-40(s0)
    50200eb8:	97ba                	add	a5,a5,a4
    50200eba:	0007c783          	lbu	a5,0(a5)
    50200ebe:	853e                	mv	a0,a5
    50200ec0:	dddff0ef          	jal	ra,50200c9c <screen_write_ch>
    50200ec4:	fec42783          	lw	a5,-20(s0)
    50200ec8:	2785                	addiw	a5,a5,1
    50200eca:	fef42623          	sw	a5,-20(s0)
    50200ece:	fec42703          	lw	a4,-20(s0)
    50200ed2:	fe842783          	lw	a5,-24(s0)
    50200ed6:	2701                	sext.w	a4,a4
    50200ed8:	2781                	sext.w	a5,a5
    50200eda:	fcf74be3          	blt	a4,a5,50200eb0 <screen_write+0x28>
    50200ede:	0001                	nop
    50200ee0:	0001                	nop
    50200ee2:	70a2                	ld	ra,40(sp)
    50200ee4:	7402                	ld	s0,32(sp)
    50200ee6:	6145                	addi	sp,sp,48
    50200ee8:	8082                	ret

0000000050200eea <screen_reflush>:
    50200eea:	1101                	addi	sp,sp,-32
    50200eec:	ec06                	sd	ra,24(sp)
    50200eee:	e822                	sd	s0,16(sp)
    50200ef0:	1000                	addi	s0,sp,32
    50200ef2:	fe042623          	sw	zero,-20(s0)
    50200ef6:	aa31                	j	50201012 <screen_reflush+0x128>
    50200ef8:	fe042423          	sw	zero,-24(s0)
    50200efc:	a8f5                	j	50200ff8 <screen_reflush+0x10e>
    50200efe:	fec42703          	lw	a4,-20(s0)
    50200f02:	87ba                	mv	a5,a4
    50200f04:	0027979b          	slliw	a5,a5,0x2
    50200f08:	9fb9                	addw	a5,a5,a4
    50200f0a:	0047979b          	slliw	a5,a5,0x4
    50200f0e:	2781                	sext.w	a5,a5
    50200f10:	fe842703          	lw	a4,-24(s0)
    50200f14:	9fb9                	addw	a5,a5,a4
    50200f16:	2781                	sext.w	a5,a5
    50200f18:	00003717          	auipc	a4,0x3
    50200f1c:	5b870713          	addi	a4,a4,1464 # 502044d0 <new_screen>
    50200f20:	97ba                	add	a5,a5,a4
    50200f22:	0007c683          	lbu	a3,0(a5)
    50200f26:	fec42703          	lw	a4,-20(s0)
    50200f2a:	87ba                	mv	a5,a4
    50200f2c:	0027979b          	slliw	a5,a5,0x2
    50200f30:	9fb9                	addw	a5,a5,a4
    50200f32:	0047979b          	slliw	a5,a5,0x4
    50200f36:	2781                	sext.w	a5,a5
    50200f38:	fe842703          	lw	a4,-24(s0)
    50200f3c:	9fb9                	addw	a5,a5,a4
    50200f3e:	2781                	sext.w	a5,a5
    50200f40:	00004717          	auipc	a4,0x4
    50200f44:	53070713          	addi	a4,a4,1328 # 50205470 <old_screen>
    50200f48:	97ba                	add	a5,a5,a4
    50200f4a:	0007c783          	lbu	a5,0(a5)
    50200f4e:	8736                	mv	a4,a3
    50200f50:	08f70f63          	beq	a4,a5,50200fee <screen_reflush+0x104>
    50200f54:	fe842783          	lw	a5,-24(s0)
    50200f58:	2785                	addiw	a5,a5,1
    50200f5a:	0007871b          	sext.w	a4,a5
    50200f5e:	fec42783          	lw	a5,-20(s0)
    50200f62:	2785                	addiw	a5,a5,1
    50200f64:	2781                	sext.w	a5,a5
    50200f66:	85be                	mv	a1,a5
    50200f68:	853a                	mv	a0,a4
    50200f6a:	c91ff0ef          	jal	ra,50200bfa <vt100_move_cursor>
    50200f6e:	fec42703          	lw	a4,-20(s0)
    50200f72:	87ba                	mv	a5,a4
    50200f74:	0027979b          	slliw	a5,a5,0x2
    50200f78:	9fb9                	addw	a5,a5,a4
    50200f7a:	0047979b          	slliw	a5,a5,0x4
    50200f7e:	2781                	sext.w	a5,a5
    50200f80:	fe842703          	lw	a4,-24(s0)
    50200f84:	9fb9                	addw	a5,a5,a4
    50200f86:	2781                	sext.w	a5,a5
    50200f88:	00003717          	auipc	a4,0x3
    50200f8c:	54870713          	addi	a4,a4,1352 # 502044d0 <new_screen>
    50200f90:	97ba                	add	a5,a5,a4
    50200f92:	0007c783          	lbu	a5,0(a5)
    50200f96:	853e                	mv	a0,a5
    50200f98:	aeeff0ef          	jal	ra,50200286 <port_write_ch>
    50200f9c:	fec42703          	lw	a4,-20(s0)
    50200fa0:	87ba                	mv	a5,a4
    50200fa2:	0027979b          	slliw	a5,a5,0x2
    50200fa6:	9fb9                	addw	a5,a5,a4
    50200fa8:	0047979b          	slliw	a5,a5,0x4
    50200fac:	2781                	sext.w	a5,a5
    50200fae:	fe842703          	lw	a4,-24(s0)
    50200fb2:	9fb9                	addw	a5,a5,a4
    50200fb4:	0007869b          	sext.w	a3,a5
    50200fb8:	fec42703          	lw	a4,-20(s0)
    50200fbc:	87ba                	mv	a5,a4
    50200fbe:	0027979b          	slliw	a5,a5,0x2
    50200fc2:	9fb9                	addw	a5,a5,a4
    50200fc4:	0047979b          	slliw	a5,a5,0x4
    50200fc8:	2781                	sext.w	a5,a5
    50200fca:	fe842703          	lw	a4,-24(s0)
    50200fce:	9fb9                	addw	a5,a5,a4
    50200fd0:	2781                	sext.w	a5,a5
    50200fd2:	00003717          	auipc	a4,0x3
    50200fd6:	4fe70713          	addi	a4,a4,1278 # 502044d0 <new_screen>
    50200fda:	9736                	add	a4,a4,a3
    50200fdc:	00074703          	lbu	a4,0(a4)
    50200fe0:	00004697          	auipc	a3,0x4
    50200fe4:	49068693          	addi	a3,a3,1168 # 50205470 <old_screen>
    50200fe8:	97b6                	add	a5,a5,a3
    50200fea:	00e78023          	sb	a4,0(a5)
    50200fee:	fe842783          	lw	a5,-24(s0)
    50200ff2:	2785                	addiw	a5,a5,1
    50200ff4:	fef42423          	sw	a5,-24(s0)
    50200ff8:	fe842783          	lw	a5,-24(s0)
    50200ffc:	0007871b          	sext.w	a4,a5
    50201000:	04f00793          	li	a5,79
    50201004:	eee7dde3          	bge	a5,a4,50200efe <screen_reflush+0x14>
    50201008:	fec42783          	lw	a5,-20(s0)
    5020100c:	2785                	addiw	a5,a5,1
    5020100e:	fef42623          	sw	a5,-20(s0)
    50201012:	fec42783          	lw	a5,-20(s0)
    50201016:	0007871b          	sext.w	a4,a5
    5020101a:	03100793          	li	a5,49
    5020101e:	ece7dde3          	bge	a5,a4,50200ef8 <screen_reflush+0xe>
    50201022:	00005797          	auipc	a5,0x5
    50201026:	4e678793          	addi	a5,a5,1254 # 50206508 <screen_cursor_x>
    5020102a:	4398                	lw	a4,0(a5)
    5020102c:	00005797          	auipc	a5,0x5
    50201030:	4e078793          	addi	a5,a5,1248 # 5020650c <screen_cursor_y>
    50201034:	439c                	lw	a5,0(a5)
    50201036:	85be                	mv	a1,a5
    50201038:	853a                	mv	a0,a4
    5020103a:	bc1ff0ef          	jal	ra,50200bfa <vt100_move_cursor>
    5020103e:	0001                	nop
    50201040:	60e2                	ld	ra,24(sp)
    50201042:	6442                	ld	s0,16(sp)
    50201044:	6105                	addi	sp,sp,32
    50201046:	8082                	ret

0000000050201048 <init_list_head>:
    50201048:	1101                	addi	sp,sp,-32
    5020104a:	ec22                	sd	s0,24(sp)
    5020104c:	1000                	addi	s0,sp,32
    5020104e:	fea43423          	sd	a0,-24(s0)
    50201052:	fe843783          	ld	a5,-24(s0)
    50201056:	fe843703          	ld	a4,-24(s0)
    5020105a:	e398                	sd	a4,0(a5)
    5020105c:	fe843783          	ld	a5,-24(s0)
    50201060:	fe843703          	ld	a4,-24(s0)
    50201064:	e798                	sd	a4,8(a5)
    50201066:	0001                	nop
    50201068:	6462                	ld	s0,24(sp)
    5020106a:	6105                	addi	sp,sp,32
    5020106c:	8082                	ret

000000005020106e <list_empty>:
    5020106e:	1101                	addi	sp,sp,-32
    50201070:	ec22                	sd	s0,24(sp)
    50201072:	1000                	addi	s0,sp,32
    50201074:	fea43423          	sd	a0,-24(s0)
    50201078:	fe843783          	ld	a5,-24(s0)
    5020107c:	639c                	ld	a5,0(a5)
    5020107e:	fe843703          	ld	a4,-24(s0)
    50201082:	40f707b3          	sub	a5,a4,a5
    50201086:	0017b793          	seqz	a5,a5
    5020108a:	0ff7f793          	andi	a5,a5,255
    5020108e:	2781                	sext.w	a5,a5
    50201090:	853e                	mv	a0,a5
    50201092:	6462                	ld	s0,24(sp)
    50201094:	6105                	addi	sp,sp,32
    50201096:	8082                	ret

0000000050201098 <mutex_get>:
    50201098:	1141                	addi	sp,sp,-16
    5020109a:	e406                	sd	ra,8(sp)
    5020109c:	e022                	sd	s0,0(sp)
    5020109e:	0800                	addi	s0,sp,16
    502010a0:	00005797          	auipc	a5,0x5
    502010a4:	56078793          	addi	a5,a5,1376 # 50206600 <count>
    502010a8:	439c                	lw	a5,0(a5)
    502010aa:	2785                	addiw	a5,a5,1
    502010ac:	0007871b          	sext.w	a4,a5
    502010b0:	00005797          	auipc	a5,0x5
    502010b4:	55078793          	addi	a5,a5,1360 # 50206600 <count>
    502010b8:	c398                	sw	a4,0(a5)
    502010ba:	00005797          	auipc	a5,0x5
    502010be:	54678793          	addi	a5,a5,1350 # 50206600 <count>
    502010c2:	4398                	lw	a4,0(a5)
    502010c4:	87ba                	mv	a5,a4
    502010c6:	0786                	slli	a5,a5,0x1
    502010c8:	97ba                	add	a5,a5,a4
    502010ca:	078e                	slli	a5,a5,0x3
    502010cc:	00005717          	auipc	a4,0x5
    502010d0:	44470713          	addi	a4,a4,1092 # 50206510 <MUTEX_LOCK>
    502010d4:	97ba                	add	a5,a5,a4
    502010d6:	853e                	mv	a0,a5
    502010d8:	088000ef          	jal	ra,50201160 <do_mutex_lock_init>
    502010dc:	00005797          	auipc	a5,0x5
    502010e0:	52478793          	addi	a5,a5,1316 # 50206600 <count>
    502010e4:	439c                	lw	a5,0(a5)
    502010e6:	853e                	mv	a0,a5
    502010e8:	60a2                	ld	ra,8(sp)
    502010ea:	6402                	ld	s0,0(sp)
    502010ec:	0141                	addi	sp,sp,16
    502010ee:	8082                	ret

00000000502010f0 <mutex_lock>:
    502010f0:	1101                	addi	sp,sp,-32
    502010f2:	ec06                	sd	ra,24(sp)
    502010f4:	e822                	sd	s0,16(sp)
    502010f6:	1000                	addi	s0,sp,32
    502010f8:	87aa                	mv	a5,a0
    502010fa:	fef42623          	sw	a5,-20(s0)
    502010fe:	fec42703          	lw	a4,-20(s0)
    50201102:	87ba                	mv	a5,a4
    50201104:	0786                	slli	a5,a5,0x1
    50201106:	97ba                	add	a5,a5,a4
    50201108:	078e                	slli	a5,a5,0x3
    5020110a:	00005717          	auipc	a4,0x5
    5020110e:	40670713          	addi	a4,a4,1030 # 50206510 <MUTEX_LOCK>
    50201112:	97ba                	add	a5,a5,a4
    50201114:	853e                	mv	a0,a5
    50201116:	074000ef          	jal	ra,5020118a <do_mutex_lock_acquire>
    5020111a:	fec42783          	lw	a5,-20(s0)
    5020111e:	853e                	mv	a0,a5
    50201120:	60e2                	ld	ra,24(sp)
    50201122:	6442                	ld	s0,16(sp)
    50201124:	6105                	addi	sp,sp,32
    50201126:	8082                	ret

0000000050201128 <mutex_unlock>:
    50201128:	1101                	addi	sp,sp,-32
    5020112a:	ec06                	sd	ra,24(sp)
    5020112c:	e822                	sd	s0,16(sp)
    5020112e:	1000                	addi	s0,sp,32
    50201130:	87aa                	mv	a5,a0
    50201132:	fef42623          	sw	a5,-20(s0)
    50201136:	fec42703          	lw	a4,-20(s0)
    5020113a:	87ba                	mv	a5,a4
    5020113c:	0786                	slli	a5,a5,0x1
    5020113e:	97ba                	add	a5,a5,a4
    50201140:	078e                	slli	a5,a5,0x3
    50201142:	00005717          	auipc	a4,0x5
    50201146:	3ce70713          	addi	a4,a4,974 # 50206510 <MUTEX_LOCK>
    5020114a:	97ba                	add	a5,a5,a4
    5020114c:	853e                	mv	a0,a5
    5020114e:	07e000ef          	jal	ra,502011cc <do_mutex_lock_release>
    50201152:	fec42783          	lw	a5,-20(s0)
    50201156:	853e                	mv	a0,a5
    50201158:	60e2                	ld	ra,24(sp)
    5020115a:	6442                	ld	s0,16(sp)
    5020115c:	6105                	addi	sp,sp,32
    5020115e:	8082                	ret

0000000050201160 <do_mutex_lock_init>:
    50201160:	1101                	addi	sp,sp,-32
    50201162:	ec06                	sd	ra,24(sp)
    50201164:	e822                	sd	s0,16(sp)
    50201166:	1000                	addi	s0,sp,32
    50201168:	fea43423          	sd	a0,-24(s0)
    5020116c:	fe843783          	ld	a5,-24(s0)
    50201170:	0007a023          	sw	zero,0(a5)
    50201174:	fe843783          	ld	a5,-24(s0)
    50201178:	07a1                	addi	a5,a5,8
    5020117a:	853e                	mv	a0,a5
    5020117c:	ecdff0ef          	jal	ra,50201048 <init_list_head>
    50201180:	0001                	nop
    50201182:	60e2                	ld	ra,24(sp)
    50201184:	6442                	ld	s0,16(sp)
    50201186:	6105                	addi	sp,sp,32
    50201188:	8082                	ret

000000005020118a <do_mutex_lock_acquire>:
    5020118a:	1101                	addi	sp,sp,-32
    5020118c:	ec06                	sd	ra,24(sp)
    5020118e:	e822                	sd	s0,16(sp)
    50201190:	1000                	addi	s0,sp,32
    50201192:	fea43423          	sd	a0,-24(s0)
    50201196:	fe843783          	ld	a5,-24(s0)
    5020119a:	439c                	lw	a5,0(a5)
    5020119c:	2781                	sext.w	a5,a5
    5020119e:	e791                	bnez	a5,502011aa <do_mutex_lock_acquire+0x20>
    502011a0:	fe843783          	ld	a5,-24(s0)
    502011a4:	4705                	li	a4,1
    502011a6:	c398                	sw	a4,0(a5)
    502011a8:	a829                	j	502011c2 <do_mutex_lock_acquire+0x38>
    502011aa:	00005797          	auipc	a5,0x5
    502011ae:	45e78793          	addi	a5,a5,1118 # 50206608 <current_running>
    502011b2:	6398                	ld	a4,0(a5)
    502011b4:	fe843783          	ld	a5,-24(s0)
    502011b8:	07a1                	addi	a5,a5,8
    502011ba:	85be                	mv	a1,a5
    502011bc:	853a                	mv	a0,a4
    502011be:	39c000ef          	jal	ra,5020155a <do_block>
    502011c2:	0001                	nop
    502011c4:	60e2                	ld	ra,24(sp)
    502011c6:	6442                	ld	s0,16(sp)
    502011c8:	6105                	addi	sp,sp,32
    502011ca:	8082                	ret

00000000502011cc <do_mutex_lock_release>:
    502011cc:	1101                	addi	sp,sp,-32
    502011ce:	ec06                	sd	ra,24(sp)
    502011d0:	e822                	sd	s0,16(sp)
    502011d2:	1000                	addi	s0,sp,32
    502011d4:	fea43423          	sd	a0,-24(s0)
    502011d8:	fe843783          	ld	a5,-24(s0)
    502011dc:	07a1                	addi	a5,a5,8
    502011de:	853e                	mv	a0,a5
    502011e0:	e8fff0ef          	jal	ra,5020106e <list_empty>
    502011e4:	87aa                	mv	a5,a0
    502011e6:	c791                	beqz	a5,502011f2 <do_mutex_lock_release+0x26>
    502011e8:	fe843783          	ld	a5,-24(s0)
    502011ec:	0007a023          	sw	zero,0(a5)
    502011f0:	a039                	j	502011fe <do_mutex_lock_release+0x32>
    502011f2:	fe843783          	ld	a5,-24(s0)
    502011f6:	07a1                	addi	a5,a5,8
    502011f8:	853e                	mv	a0,a5
    502011fa:	398000ef          	jal	ra,50201592 <do_unblock>
    502011fe:	0001                	nop
    50201200:	60e2                	ld	ra,24(sp)
    50201202:	6442                	ld	s0,16(sp)
    50201204:	6105                	addi	sp,sp,32
    50201206:	8082                	ret

0000000050201208 <_list_add>:
    50201208:	7179                	addi	sp,sp,-48
    5020120a:	f422                	sd	s0,40(sp)
    5020120c:	1800                	addi	s0,sp,48
    5020120e:	fea43423          	sd	a0,-24(s0)
    50201212:	feb43023          	sd	a1,-32(s0)
    50201216:	fcc43c23          	sd	a2,-40(s0)
    5020121a:	fd843783          	ld	a5,-40(s0)
    5020121e:	fe843703          	ld	a4,-24(s0)
    50201222:	e798                	sd	a4,8(a5)
    50201224:	fe843783          	ld	a5,-24(s0)
    50201228:	fd843703          	ld	a4,-40(s0)
    5020122c:	e398                	sd	a4,0(a5)
    5020122e:	fe843783          	ld	a5,-24(s0)
    50201232:	fe043703          	ld	a4,-32(s0)
    50201236:	e798                	sd	a4,8(a5)
    50201238:	fe043783          	ld	a5,-32(s0)
    5020123c:	fe843703          	ld	a4,-24(s0)
    50201240:	e398                	sd	a4,0(a5)
    50201242:	0001                	nop
    50201244:	7422                	ld	s0,40(sp)
    50201246:	6145                	addi	sp,sp,48
    50201248:	8082                	ret

000000005020124a <_list_del>:
    5020124a:	1101                	addi	sp,sp,-32
    5020124c:	ec22                	sd	s0,24(sp)
    5020124e:	1000                	addi	s0,sp,32
    50201250:	fea43423          	sd	a0,-24(s0)
    50201254:	feb43023          	sd	a1,-32(s0)
    50201258:	fe043783          	ld	a5,-32(s0)
    5020125c:	fe843703          	ld	a4,-24(s0)
    50201260:	e798                	sd	a4,8(a5)
    50201262:	fe843783          	ld	a5,-24(s0)
    50201266:	fe043703          	ld	a4,-32(s0)
    5020126a:	e398                	sd	a4,0(a5)
    5020126c:	0001                	nop
    5020126e:	6462                	ld	s0,24(sp)
    50201270:	6105                	addi	sp,sp,32
    50201272:	8082                	ret

0000000050201274 <list_del>:
    50201274:	1101                	addi	sp,sp,-32
    50201276:	ec06                	sd	ra,24(sp)
    50201278:	e822                	sd	s0,16(sp)
    5020127a:	1000                	addi	s0,sp,32
    5020127c:	fea43423          	sd	a0,-24(s0)
    50201280:	fe843783          	ld	a5,-24(s0)
    50201284:	679c                	ld	a5,8(a5)
    50201286:	c79d                	beqz	a5,502012b4 <list_del+0x40>
    50201288:	fe843783          	ld	a5,-24(s0)
    5020128c:	639c                	ld	a5,0(a5)
    5020128e:	c39d                	beqz	a5,502012b4 <list_del+0x40>
    50201290:	fe843783          	ld	a5,-24(s0)
    50201294:	6798                	ld	a4,8(a5)
    50201296:	fe843783          	ld	a5,-24(s0)
    5020129a:	639c                	ld	a5,0(a5)
    5020129c:	85be                	mv	a1,a5
    5020129e:	853a                	mv	a0,a4
    502012a0:	fabff0ef          	jal	ra,5020124a <_list_del>
    502012a4:	fe843783          	ld	a5,-24(s0)
    502012a8:	0007b423          	sd	zero,8(a5)
    502012ac:	fe843783          	ld	a5,-24(s0)
    502012b0:	0007b023          	sd	zero,0(a5)
    502012b4:	0001                	nop
    502012b6:	60e2                	ld	ra,24(sp)
    502012b8:	6442                	ld	s0,16(sp)
    502012ba:	6105                	addi	sp,sp,32
    502012bc:	8082                	ret

00000000502012be <list_add_tail>:
    502012be:	1101                	addi	sp,sp,-32
    502012c0:	ec06                	sd	ra,24(sp)
    502012c2:	e822                	sd	s0,16(sp)
    502012c4:	1000                	addi	s0,sp,32
    502012c6:	fea43423          	sd	a0,-24(s0)
    502012ca:	feb43023          	sd	a1,-32(s0)
    502012ce:	fe043783          	ld	a5,-32(s0)
    502012d2:	679c                	ld	a5,8(a5)
    502012d4:	fe043603          	ld	a2,-32(s0)
    502012d8:	85be                	mv	a1,a5
    502012da:	fe843503          	ld	a0,-24(s0)
    502012de:	f2bff0ef          	jal	ra,50201208 <_list_add>
    502012e2:	0001                	nop
    502012e4:	60e2                	ld	ra,24(sp)
    502012e6:	6442                	ld	s0,16(sp)
    502012e8:	6105                	addi	sp,sp,32
    502012ea:	8082                	ret

00000000502012ec <_panic>:
    502012ec:	7179                	addi	sp,sp,-48
    502012ee:	f406                	sd	ra,40(sp)
    502012f0:	f022                	sd	s0,32(sp)
    502012f2:	1800                	addi	s0,sp,48
    502012f4:	fea43423          	sd	a0,-24(s0)
    502012f8:	87ae                	mv	a5,a1
    502012fa:	fcc43c23          	sd	a2,-40(s0)
    502012fe:	fef42223          	sw	a5,-28(s0)
    50201302:	fe442783          	lw	a5,-28(s0)
    50201306:	86be                	mv	a3,a5
    50201308:	fe843603          	ld	a2,-24(s0)
    5020130c:	fd843583          	ld	a1,-40(s0)
    50201310:	00003517          	auipc	a0,0x3
    50201314:	83050513          	addi	a0,a0,-2000 # 50203b40 <__FUNCTION__.1400+0x30>
    50201318:	256010ef          	jal	ra,5020256e <printk>
    5020131c:	a001                	j	5020131c <_panic+0x30>

000000005020131e <rank>:
    5020131e:	7139                	addi	sp,sp,-64
    50201320:	fc06                	sd	ra,56(sp)
    50201322:	f822                	sd	s0,48(sp)
    50201324:	f426                	sd	s1,40(sp)
    50201326:	0080                	addi	s0,sp,64
    50201328:	fca43423          	sd	a0,-56(s0)
    5020132c:	fc843783          	ld	a5,-56(s0)
    50201330:	53bc                	lw	a5,96(a5)
    50201332:	873e                	mv	a4,a5
    50201334:	87ba                	mv	a5,a4
    50201336:	0027979b          	slliw	a5,a5,0x2
    5020133a:	9fb9                	addw	a5,a5,a4
    5020133c:	0007849b          	sext.w	s1,a5
    50201340:	6f6000ef          	jal	ra,50201a36 <get_ticks>
    50201344:	872a                	mv	a4,a0
    50201346:	fc843783          	ld	a5,-56(s0)
    5020134a:	77bc                	ld	a5,104(a5)
    5020134c:	8f1d                	sub	a4,a4,a5
    5020134e:	000257b7          	lui	a5,0x25
    50201352:	9f078793          	addi	a5,a5,-1552 # 249f0 <_start-0x501db610>
    50201356:	02f757b3          	divu	a5,a4,a5
    5020135a:	2781                	sext.w	a5,a5
    5020135c:	9fa5                	addw	a5,a5,s1
    5020135e:	fcf42e23          	sw	a5,-36(s0)
    50201362:	fdc42783          	lw	a5,-36(s0)
    50201366:	853e                	mv	a0,a5
    50201368:	70e2                	ld	ra,56(sp)
    5020136a:	7442                	ld	s0,48(sp)
    5020136c:	74a2                	ld	s1,40(sp)
    5020136e:	6121                	addi	sp,sp,64
    50201370:	8082                	ret

0000000050201372 <prior_search_next>:
    50201372:	711d                	addi	sp,sp,-96
    50201374:	ec86                	sd	ra,88(sp)
    50201376:	e8a2                	sd	s0,80(sp)
    50201378:	1080                	addi	s0,sp,96
    5020137a:	faa43423          	sd	a0,-88(s0)
    5020137e:	fa843783          	ld	a5,-88(s0)
    50201382:	639c                	ld	a5,0(a5)
    50201384:	fef43023          	sd	a5,-32(s0)
    50201388:	fe043783          	ld	a5,-32(s0)
    5020138c:	fcf43823          	sd	a5,-48(s0)
    50201390:	fd043783          	ld	a5,-48(s0)
    50201394:	17a1                	addi	a5,a5,-24
    50201396:	fef43423          	sd	a5,-24(s0)
    5020139a:	fc042e23          	sw	zero,-36(s0)
    5020139e:	a0b1                	j	502013ea <prior_search_next+0x78>
    502013a0:	fe043783          	ld	a5,-32(s0)
    502013a4:	fcf43423          	sd	a5,-56(s0)
    502013a8:	fc843783          	ld	a5,-56(s0)
    502013ac:	17a1                	addi	a5,a5,-24
    502013ae:	fcf43023          	sd	a5,-64(s0)
    502013b2:	fc043503          	ld	a0,-64(s0)
    502013b6:	f69ff0ef          	jal	ra,5020131e <rank>
    502013ba:	87aa                	mv	a5,a0
    502013bc:	faf42e23          	sw	a5,-68(s0)
    502013c0:	fbc42703          	lw	a4,-68(s0)
    502013c4:	fdc42783          	lw	a5,-36(s0)
    502013c8:	2701                	sext.w	a4,a4
    502013ca:	2781                	sext.w	a5,a5
    502013cc:	00e7fa63          	bgeu	a5,a4,502013e0 <prior_search_next+0x6e>
    502013d0:	fbc42783          	lw	a5,-68(s0)
    502013d4:	fcf42e23          	sw	a5,-36(s0)
    502013d8:	fc043783          	ld	a5,-64(s0)
    502013dc:	fef43423          	sd	a5,-24(s0)
    502013e0:	fe043783          	ld	a5,-32(s0)
    502013e4:	639c                	ld	a5,0(a5)
    502013e6:	fef43023          	sd	a5,-32(s0)
    502013ea:	fe043703          	ld	a4,-32(s0)
    502013ee:	fa843783          	ld	a5,-88(s0)
    502013f2:	faf717e3          	bne	a4,a5,502013a0 <prior_search_next+0x2e>
    502013f6:	fe843783          	ld	a5,-24(s0)
    502013fa:	853e                	mv	a0,a5
    502013fc:	60e6                	ld	ra,88(sp)
    502013fe:	6446                	ld	s0,80(sp)
    50201400:	6125                	addi	sp,sp,96
    50201402:	8082                	ret

0000000050201404 <do_scheduler>:
    50201404:	1101                	addi	sp,sp,-32
    50201406:	ec06                	sd	ra,24(sp)
    50201408:	e822                	sd	s0,16(sp)
    5020140a:	1000                	addi	s0,sp,32
    5020140c:	00003517          	auipc	a0,0x3
    50201410:	b7c50513          	addi	a0,a0,-1156 # 50203f88 <ready_queue>
    50201414:	f5fff0ef          	jal	ra,50201372 <prior_search_next>
    50201418:	fea43423          	sd	a0,-24(s0)
    5020141c:	fe843783          	ld	a5,-24(s0)
    50201420:	07e1                	addi	a5,a5,24
    50201422:	853e                	mv	a0,a5
    50201424:	e51ff0ef          	jal	ra,50201274 <list_del>
    50201428:	60e000ef          	jal	ra,50201a36 <get_ticks>
    5020142c:	872a                	mv	a4,a0
    5020142e:	fe843783          	ld	a5,-24(s0)
    50201432:	f7b8                	sd	a4,104(a5)
    50201434:	00005797          	auipc	a5,0x5
    50201438:	1d478793          	addi	a5,a5,468 # 50206608 <current_running>
    5020143c:	639c                	ld	a5,0(a5)
    5020143e:	fef43023          	sd	a5,-32(s0)
    50201442:	00005797          	auipc	a5,0x5
    50201446:	1c678793          	addi	a5,a5,454 # 50206608 <current_running>
    5020144a:	639c                	ld	a5,0(a5)
    5020144c:	5f9c                	lw	a5,56(a5)
    5020144e:	873e                	mv	a4,a5
    50201450:	4785                	li	a5,1
    50201452:	02f71c63          	bne	a4,a5,5020148a <do_scheduler+0x86>
    50201456:	00005797          	auipc	a5,0x5
    5020145a:	1b278793          	addi	a5,a5,434 # 50206608 <current_running>
    5020145e:	639c                	ld	a5,0(a5)
    50201460:	5b9c                	lw	a5,48(a5)
    50201462:	c785                	beqz	a5,5020148a <do_scheduler+0x86>
    50201464:	00005797          	auipc	a5,0x5
    50201468:	1a478793          	addi	a5,a5,420 # 50206608 <current_running>
    5020146c:	639c                	ld	a5,0(a5)
    5020146e:	4709                	li	a4,2
    50201470:	df98                	sw	a4,56(a5)
    50201472:	00005797          	auipc	a5,0x5
    50201476:	19678793          	addi	a5,a5,406 # 50206608 <current_running>
    5020147a:	639c                	ld	a5,0(a5)
    5020147c:	85be                	mv	a1,a5
    5020147e:	00003517          	auipc	a0,0x3
    50201482:	b0a50513          	addi	a0,a0,-1270 # 50203f88 <ready_queue>
    50201486:	178000ef          	jal	ra,502015fe <add_queue>
    5020148a:	fe843783          	ld	a5,-24(s0)
    5020148e:	4705                	li	a4,1
    50201490:	df98                	sw	a4,56(a5)
    50201492:	00005797          	auipc	a5,0x5
    50201496:	17678793          	addi	a5,a5,374 # 50206608 <current_running>
    5020149a:	fe843703          	ld	a4,-24(s0)
    5020149e:	e398                	sd	a4,0(a5)
    502014a0:	00005797          	auipc	a5,0x5
    502014a4:	16878793          	addi	a5,a5,360 # 50206608 <current_running>
    502014a8:	639c                	ld	a5,0(a5)
    502014aa:	5fd8                	lw	a4,60(a5)
    502014ac:	00005797          	auipc	a5,0x5
    502014b0:	15c78793          	addi	a5,a5,348 # 50206608 <current_running>
    502014b4:	639c                	ld	a5,0(a5)
    502014b6:	43bc                	lw	a5,64(a5)
    502014b8:	85be                	mv	a1,a5
    502014ba:	853a                	mv	a0,a4
    502014bc:	f3eff0ef          	jal	ra,50200bfa <vt100_move_cursor>
    502014c0:	00005797          	auipc	a5,0x5
    502014c4:	14878793          	addi	a5,a5,328 # 50206608 <current_running>
    502014c8:	639c                	ld	a5,0(a5)
    502014ca:	5fd8                	lw	a4,60(a5)
    502014cc:	00005797          	auipc	a5,0x5
    502014d0:	03c78793          	addi	a5,a5,60 # 50206508 <screen_cursor_x>
    502014d4:	c398                	sw	a4,0(a5)
    502014d6:	00005797          	auipc	a5,0x5
    502014da:	13278793          	addi	a5,a5,306 # 50206608 <current_running>
    502014de:	639c                	ld	a5,0(a5)
    502014e0:	43b8                	lw	a4,64(a5)
    502014e2:	00005797          	auipc	a5,0x5
    502014e6:	02a78793          	addi	a5,a5,42 # 5020650c <screen_cursor_y>
    502014ea:	c398                	sw	a4,0(a5)
    502014ec:	fe843583          	ld	a1,-24(s0)
    502014f0:	fe043503          	ld	a0,-32(s0)
    502014f4:	be5fe0ef          	jal	ra,502000d8 <switch_to>
    502014f8:	0001                	nop
    502014fa:	60e2                	ld	ra,24(sp)
    502014fc:	6442                	ld	s0,16(sp)
    502014fe:	6105                	addi	sp,sp,32
    50201500:	8082                	ret

0000000050201502 <do_sleep>:
    50201502:	1101                	addi	sp,sp,-32
    50201504:	ec06                	sd	ra,24(sp)
    50201506:	e822                	sd	s0,16(sp)
    50201508:	1000                	addi	s0,sp,32
    5020150a:	87aa                	mv	a5,a0
    5020150c:	fef42623          	sw	a5,-20(s0)
    50201510:	00005797          	auipc	a5,0x5
    50201514:	0f878793          	addi	a5,a5,248 # 50206608 <current_running>
    50201518:	639c                	ld	a5,0(a5)
    5020151a:	0207ac23          	sw	zero,56(a5)
    5020151e:	00005797          	auipc	a5,0x5
    50201522:	0ea78793          	addi	a5,a5,234 # 50206608 <current_running>
    50201526:	6394                	ld	a3,0(a5)
    50201528:	84018793          	addi	a5,gp,-1984 # 502044c8 <time_base>
    5020152c:	439c                	lw	a5,0(a5)
    5020152e:	fec42703          	lw	a4,-20(s0)
    50201532:	02f707bb          	mulw	a5,a4,a5
    50201536:	2781                	sext.w	a5,a5
    50201538:	1782                	slli	a5,a5,0x20
    5020153a:	9381                	srli	a5,a5,0x20
    5020153c:	863e                	mv	a2,a5
    5020153e:	85b6                	mv	a1,a3
    50201540:	00000517          	auipc	a0,0x0
    50201544:	08c50513          	addi	a0,a0,140 # 502015cc <do_unblock_timer>
    50201548:	3dc000ef          	jal	ra,50201924 <timer_creat>
    5020154c:	eb9ff0ef          	jal	ra,50201404 <do_scheduler>
    50201550:	0001                	nop
    50201552:	60e2                	ld	ra,24(sp)
    50201554:	6442                	ld	s0,16(sp)
    50201556:	6105                	addi	sp,sp,32
    50201558:	8082                	ret

000000005020155a <do_block>:
    5020155a:	1101                	addi	sp,sp,-32
    5020155c:	ec06                	sd	ra,24(sp)
    5020155e:	e822                	sd	s0,16(sp)
    50201560:	1000                	addi	s0,sp,32
    50201562:	fea43423          	sd	a0,-24(s0)
    50201566:	feb43023          	sd	a1,-32(s0)
    5020156a:	00005797          	auipc	a5,0x5
    5020156e:	09e78793          	addi	a5,a5,158 # 50206608 <current_running>
    50201572:	639c                	ld	a5,0(a5)
    50201574:	0207ac23          	sw	zero,56(a5)
    50201578:	fe843583          	ld	a1,-24(s0)
    5020157c:	fe043503          	ld	a0,-32(s0)
    50201580:	07e000ef          	jal	ra,502015fe <add_queue>
    50201584:	e81ff0ef          	jal	ra,50201404 <do_scheduler>
    50201588:	0001                	nop
    5020158a:	60e2                	ld	ra,24(sp)
    5020158c:	6442                	ld	s0,16(sp)
    5020158e:	6105                	addi	sp,sp,32
    50201590:	8082                	ret

0000000050201592 <do_unblock>:
    50201592:	7179                	addi	sp,sp,-48
    50201594:	f406                	sd	ra,40(sp)
    50201596:	f022                	sd	s0,32(sp)
    50201598:	1800                	addi	s0,sp,48
    5020159a:	fca43c23          	sd	a0,-40(s0)
    5020159e:	fd843503          	ld	a0,-40(s0)
    502015a2:	086000ef          	jal	ra,50201628 <delete_queue>
    502015a6:	fea43423          	sd	a0,-24(s0)
    502015aa:	fe843783          	ld	a5,-24(s0)
    502015ae:	4709                	li	a4,2
    502015b0:	df98                	sw	a4,56(a5)
    502015b2:	fe843583          	ld	a1,-24(s0)
    502015b6:	00003517          	auipc	a0,0x3
    502015ba:	9d250513          	addi	a0,a0,-1582 # 50203f88 <ready_queue>
    502015be:	040000ef          	jal	ra,502015fe <add_queue>
    502015c2:	0001                	nop
    502015c4:	70a2                	ld	ra,40(sp)
    502015c6:	7402                	ld	s0,32(sp)
    502015c8:	6145                	addi	sp,sp,48
    502015ca:	8082                	ret

00000000502015cc <do_unblock_timer>:
    502015cc:	1101                	addi	sp,sp,-32
    502015ce:	ec06                	sd	ra,24(sp)
    502015d0:	e822                	sd	s0,16(sp)
    502015d2:	1000                	addi	s0,sp,32
    502015d4:	fea43423          	sd	a0,-24(s0)
    502015d8:	fe843783          	ld	a5,-24(s0)
    502015dc:	4709                	li	a4,2
    502015de:	df98                	sw	a4,56(a5)
    502015e0:	fe843583          	ld	a1,-24(s0)
    502015e4:	00003517          	auipc	a0,0x3
    502015e8:	9a450513          	addi	a0,a0,-1628 # 50203f88 <ready_queue>
    502015ec:	012000ef          	jal	ra,502015fe <add_queue>
    502015f0:	e15ff0ef          	jal	ra,50201404 <do_scheduler>
    502015f4:	0001                	nop
    502015f6:	60e2                	ld	ra,24(sp)
    502015f8:	6442                	ld	s0,16(sp)
    502015fa:	6105                	addi	sp,sp,32
    502015fc:	8082                	ret

00000000502015fe <add_queue>:
    502015fe:	1101                	addi	sp,sp,-32
    50201600:	ec06                	sd	ra,24(sp)
    50201602:	e822                	sd	s0,16(sp)
    50201604:	1000                	addi	s0,sp,32
    50201606:	fea43423          	sd	a0,-24(s0)
    5020160a:	feb43023          	sd	a1,-32(s0)
    5020160e:	fe043783          	ld	a5,-32(s0)
    50201612:	07e1                	addi	a5,a5,24
    50201614:	fe843583          	ld	a1,-24(s0)
    50201618:	853e                	mv	a0,a5
    5020161a:	ca5ff0ef          	jal	ra,502012be <list_add_tail>
    5020161e:	0001                	nop
    50201620:	60e2                	ld	ra,24(sp)
    50201622:	6442                	ld	s0,16(sp)
    50201624:	6105                	addi	sp,sp,32
    50201626:	8082                	ret

0000000050201628 <delete_queue>:
    50201628:	7179                	addi	sp,sp,-48
    5020162a:	f406                	sd	ra,40(sp)
    5020162c:	f022                	sd	s0,32(sp)
    5020162e:	1800                	addi	s0,sp,48
    50201630:	fca43c23          	sd	a0,-40(s0)
    50201634:	fd843783          	ld	a5,-40(s0)
    50201638:	639c                	ld	a5,0(a5)
    5020163a:	fef43423          	sd	a5,-24(s0)
    5020163e:	fe843783          	ld	a5,-24(s0)
    50201642:	17a1                	addi	a5,a5,-24
    50201644:	fef43023          	sd	a5,-32(s0)
    50201648:	fd843783          	ld	a5,-40(s0)
    5020164c:	639c                	ld	a5,0(a5)
    5020164e:	853e                	mv	a0,a5
    50201650:	c25ff0ef          	jal	ra,50201274 <list_del>
    50201654:	fe043783          	ld	a5,-32(s0)
    50201658:	853e                	mv	a0,a5
    5020165a:	70a2                	ld	ra,40(sp)
    5020165c:	7402                	ld	s0,32(sp)
    5020165e:	6145                	addi	sp,sp,48
    50201660:	8082                	ret

0000000050201662 <do_priority>:
    50201662:	7179                	addi	sp,sp,-48
    50201664:	f406                	sd	ra,40(sp)
    50201666:	f022                	sd	s0,32(sp)
    50201668:	1800                	addi	s0,sp,48
    5020166a:	87aa                	mv	a5,a0
    5020166c:	fcf42e23          	sw	a5,-36(s0)
    50201670:	fdc42783          	lw	a5,-36(s0)
    50201674:	fef42623          	sw	a5,-20(s0)
    50201678:	fec42783          	lw	a5,-20(s0)
    5020167c:	0007871b          	sext.w	a4,a5
    50201680:	4791                	li	a5,4
    50201682:	00e7fe63          	bgeu	a5,a4,5020169e <do_priority+0x3c>
    50201686:	00002617          	auipc	a2,0x2
    5020168a:	4fa60613          	addi	a2,a2,1274 # 50203b80 <__FUNCTION__.1316>
    5020168e:	08700593          	li	a1,135
    50201692:	00002517          	auipc	a0,0x2
    50201696:	4d650513          	addi	a0,a0,1238 # 50203b68 <__FUNCTION__.1400+0x58>
    5020169a:	c53ff0ef          	jal	ra,502012ec <_panic>
    5020169e:	00005797          	auipc	a5,0x5
    502016a2:	f6a78793          	addi	a5,a5,-150 # 50206608 <current_running>
    502016a6:	639c                	ld	a5,0(a5)
    502016a8:	fec42703          	lw	a4,-20(s0)
    502016ac:	d3b8                	sw	a4,96(a5)
    502016ae:	0001                	nop
    502016b0:	70a2                	ld	ra,40(sp)
    502016b2:	7402                	ld	s0,32(sp)
    502016b4:	6145                	addi	sp,sp,48
    502016b6:	8082                	ret

00000000502016b8 <fork>:
    502016b8:	7179                	addi	sp,sp,-48
    502016ba:	f406                	sd	ra,40(sp)
    502016bc:	f022                	sd	s0,32(sp)
    502016be:	1800                	addi	s0,sp,48
    502016c0:	00003797          	auipc	a5,0x3
    502016c4:	dd878793          	addi	a5,a5,-552 # 50204498 <process_id>
    502016c8:	439c                	lw	a5,0(a5)
    502016ca:	873e                	mv	a4,a5
    502016cc:	47bd                	li	a5,15
    502016ce:	00e7de63          	bge	a5,a4,502016ea <fork+0x32>
    502016d2:	00003617          	auipc	a2,0x3
    502016d6:	dbe60613          	addi	a2,a2,-578 # 50204490 <__FUNCTION__.1320>
    502016da:	08c00593          	li	a1,140
    502016de:	00002517          	auipc	a0,0x2
    502016e2:	48a50513          	addi	a0,a0,1162 # 50203b68 <__FUNCTION__.1400+0x58>
    502016e6:	c07ff0ef          	jal	ra,502012ec <_panic>
    502016ea:	00003797          	auipc	a5,0x3
    502016ee:	dae78793          	addi	a5,a5,-594 # 50204498 <process_id>
    502016f2:	439c                	lw	a5,0(a5)
    502016f4:	873e                	mv	a4,a5
    502016f6:	87ba                	mv	a5,a4
    502016f8:	078e                	slli	a5,a5,0x3
    502016fa:	8f99                	sub	a5,a5,a4
    502016fc:	0792                	slli	a5,a5,0x4
    502016fe:	873e                	mv	a4,a5
    50201700:	00005797          	auipc	a5,0x5
    50201704:	f1078793          	addi	a5,a5,-240 # 50206610 <pcb>
    50201708:	97ba                	add	a5,a5,a4
    5020170a:	fef43423          	sd	a5,-24(s0)
    5020170e:	00005797          	auipc	a5,0x5
    50201712:	efa78793          	addi	a5,a5,-262 # 50206608 <current_running>
    50201716:	639c                	ld	a5,0(a5)
    50201718:	fe843703          	ld	a4,-24(s0)
    5020171c:	86be                	mv	a3,a5
    5020171e:	07000793          	li	a5,112
    50201722:	863e                	mv	a2,a5
    50201724:	85b6                	mv	a1,a3
    50201726:	853a                	mv	a0,a4
    50201728:	5d8010ef          	jal	ra,50202d00 <memcpy>
    5020172c:	00003797          	auipc	a5,0x3
    50201730:	d6c78793          	addi	a5,a5,-660 # 50204498 <process_id>
    50201734:	4398                	lw	a4,0(a5)
    50201736:	fe843783          	ld	a5,-24(s0)
    5020173a:	db98                	sw	a4,48(a5)
    5020173c:	fe843783          	ld	a5,-24(s0)
    50201740:	4709                	li	a4,2
    50201742:	df98                	sw	a4,56(a5)
    50201744:	4505                	li	a0,1
    50201746:	382000ef          	jal	ra,50201ac8 <allocPage>
    5020174a:	872a                	mv	a4,a0
    5020174c:	6785                	lui	a5,0x1
    5020174e:	973e                	add	a4,a4,a5
    50201750:	fe843783          	ld	a5,-24(s0)
    50201754:	e398                	sd	a4,0(a5)
    50201756:	4505                	li	a0,1
    50201758:	370000ef          	jal	ra,50201ac8 <allocPage>
    5020175c:	872a                	mv	a4,a0
    5020175e:	6785                	lui	a5,0x1
    50201760:	973e                	add	a4,a4,a5
    50201762:	fe843783          	ld	a5,-24(s0)
    50201766:	e798                	sd	a4,8(a5)
    50201768:	fe843783          	ld	a5,-24(s0)
    5020176c:	639c                	ld	a5,0(a5)
    5020176e:	ee078793          	addi	a5,a5,-288 # ee0 <_start-0x501ff120>
    50201772:	fef43023          	sd	a5,-32(s0)
    50201776:	fe843783          	ld	a5,-24(s0)
    5020177a:	6398                	ld	a4,0(a5)
    5020177c:	77fd                	lui	a5,0xfffff
    5020177e:	00f706b3          	add	a3,a4,a5
    50201782:	00005797          	auipc	a5,0x5
    50201786:	e8678793          	addi	a5,a5,-378 # 50206608 <current_running>
    5020178a:	639c                	ld	a5,0(a5)
    5020178c:	6398                	ld	a4,0(a5)
    5020178e:	77fd                	lui	a5,0xfffff
    50201790:	19078793          	addi	a5,a5,400 # fffffffffffff190 <__BSS_END__+0xffffffffafdf8280>
    50201794:	97ba                	add	a5,a5,a4
    50201796:	6605                	lui	a2,0x1
    50201798:	85be                	mv	a1,a5
    5020179a:	8536                	mv	a0,a3
    5020179c:	446000ef          	jal	ra,50201be2 <kmemcpy>
    502017a0:	fe843783          	ld	a5,-24(s0)
    502017a4:	6798                	ld	a4,8(a5)
    502017a6:	77fd                	lui	a5,0xfffff
    502017a8:	00f706b3          	add	a3,a4,a5
    502017ac:	00005797          	auipc	a5,0x5
    502017b0:	e5c78793          	addi	a5,a5,-420 # 50206608 <current_running>
    502017b4:	639c                	ld	a5,0(a5)
    502017b6:	6798                	ld	a4,8(a5)
    502017b8:	77fd                	lui	a5,0xfffff
    502017ba:	97ba                	add	a5,a5,a4
    502017bc:	6605                	lui	a2,0x1
    502017be:	85be                	mv	a1,a5
    502017c0:	8536                	mv	a0,a3
    502017c2:	420000ef          	jal	ra,50201be2 <kmemcpy>
    502017c6:	fe843783          	ld	a5,-24(s0)
    502017ca:	639c                	ld	a5,0(a5)
    502017cc:	e7078713          	addi	a4,a5,-400 # ffffffffffffee70 <__BSS_END__+0xffffffffafdf7f60>
    502017d0:	fe843783          	ld	a5,-24(s0)
    502017d4:	e398                	sd	a4,0(a5)
    502017d6:	fe843783          	ld	a5,-24(s0)
    502017da:	6798                	ld	a4,8(a5)
    502017dc:	00005797          	auipc	a5,0x5
    502017e0:	e2c78793          	addi	a5,a5,-468 # 50206608 <current_running>
    502017e4:	639c                	ld	a5,0(a5)
    502017e6:	679c                	ld	a5,8(a5)
    502017e8:	40f707b3          	sub	a5,a4,a5
    502017ec:	fcf43c23          	sd	a5,-40(s0)
    502017f0:	fe043783          	ld	a5,-32(s0)
    502017f4:	0407b823          	sd	zero,80(a5)
    502017f8:	fe043783          	ld	a5,-32(s0)
    502017fc:	6b98                	ld	a4,16(a5)
    502017fe:	fd843783          	ld	a5,-40(s0)
    50201802:	973e                	add	a4,a4,a5
    50201804:	fe043783          	ld	a5,-32(s0)
    50201808:	eb98                	sd	a4,16(a5)
    5020180a:	fe043783          	ld	a5,-32(s0)
    5020180e:	63b8                	ld	a4,64(a5)
    50201810:	fd843783          	ld	a5,-40(s0)
    50201814:	973e                	add	a4,a4,a5
    50201816:	fe043783          	ld	a5,-32(s0)
    5020181a:	e3b8                	sd	a4,64(a5)
    5020181c:	fe843703          	ld	a4,-24(s0)
    50201820:	fe043783          	ld	a5,-32(s0)
    50201824:	f398                	sd	a4,32(a5)
    50201826:	fe843583          	ld	a1,-24(s0)
    5020182a:	00002517          	auipc	a0,0x2
    5020182e:	75e50513          	addi	a0,a0,1886 # 50203f88 <ready_queue>
    50201832:	dcdff0ef          	jal	ra,502015fe <add_queue>
    50201836:	00003797          	auipc	a5,0x3
    5020183a:	c6278793          	addi	a5,a5,-926 # 50204498 <process_id>
    5020183e:	439c                	lw	a5,0(a5)
    50201840:	0017871b          	addiw	a4,a5,1
    50201844:	0007069b          	sext.w	a3,a4
    50201848:	00003717          	auipc	a4,0x3
    5020184c:	c5070713          	addi	a4,a4,-944 # 50204498 <process_id>
    50201850:	c314                	sw	a3,0(a4)
    50201852:	2781                	sext.w	a5,a5
    50201854:	853e                	mv	a0,a5
    50201856:	70a2                	ld	ra,40(sp)
    50201858:	7402                	ld	s0,32(sp)
    5020185a:	6145                	addi	sp,sp,48
    5020185c:	8082                	ret

000000005020185e <_list_del>:
    5020185e:	1101                	addi	sp,sp,-32
    50201860:	ec22                	sd	s0,24(sp)
    50201862:	1000                	addi	s0,sp,32
    50201864:	fea43423          	sd	a0,-24(s0)
    50201868:	feb43023          	sd	a1,-32(s0)
    5020186c:	fe043783          	ld	a5,-32(s0)
    50201870:	fe843703          	ld	a4,-24(s0)
    50201874:	e798                	sd	a4,8(a5)
    50201876:	fe843783          	ld	a5,-24(s0)
    5020187a:	fe043703          	ld	a4,-32(s0)
    5020187e:	e398                	sd	a4,0(a5)
    50201880:	0001                	nop
    50201882:	6462                	ld	s0,24(sp)
    50201884:	6105                	addi	sp,sp,32
    50201886:	8082                	ret

0000000050201888 <list_del>:
    50201888:	1101                	addi	sp,sp,-32
    5020188a:	ec06                	sd	ra,24(sp)
    5020188c:	e822                	sd	s0,16(sp)
    5020188e:	1000                	addi	s0,sp,32
    50201890:	fea43423          	sd	a0,-24(s0)
    50201894:	fe843783          	ld	a5,-24(s0)
    50201898:	679c                	ld	a5,8(a5)
    5020189a:	c79d                	beqz	a5,502018c8 <list_del+0x40>
    5020189c:	fe843783          	ld	a5,-24(s0)
    502018a0:	639c                	ld	a5,0(a5)
    502018a2:	c39d                	beqz	a5,502018c8 <list_del+0x40>
    502018a4:	fe843783          	ld	a5,-24(s0)
    502018a8:	6798                	ld	a4,8(a5)
    502018aa:	fe843783          	ld	a5,-24(s0)
    502018ae:	639c                	ld	a5,0(a5)
    502018b0:	85be                	mv	a1,a5
    502018b2:	853a                	mv	a0,a4
    502018b4:	fabff0ef          	jal	ra,5020185e <_list_del>
    502018b8:	fe843783          	ld	a5,-24(s0)
    502018bc:	0007b423          	sd	zero,8(a5)
    502018c0:	fe843783          	ld	a5,-24(s0)
    502018c4:	0007b023          	sd	zero,0(a5)
    502018c8:	0001                	nop
    502018ca:	60e2                	ld	ra,24(sp)
    502018cc:	6442                	ld	s0,16(sp)
    502018ce:	6105                	addi	sp,sp,32
    502018d0:	8082                	ret

00000000502018d2 <list_empty>:
    502018d2:	1101                	addi	sp,sp,-32
    502018d4:	ec22                	sd	s0,24(sp)
    502018d6:	1000                	addi	s0,sp,32
    502018d8:	fea43423          	sd	a0,-24(s0)
    502018dc:	fe843783          	ld	a5,-24(s0)
    502018e0:	639c                	ld	a5,0(a5)
    502018e2:	fe843703          	ld	a4,-24(s0)
    502018e6:	40f707b3          	sub	a5,a4,a5
    502018ea:	0017b793          	seqz	a5,a5
    502018ee:	0ff7f793          	andi	a5,a5,255
    502018f2:	2781                	sext.w	a5,a5
    502018f4:	853e                	mv	a0,a5
    502018f6:	6462                	ld	s0,24(sp)
    502018f8:	6105                	addi	sp,sp,32
    502018fa:	8082                	ret

00000000502018fc <entry_sleep_queue>:
    502018fc:	7179                	addi	sp,sp,-48
    502018fe:	f422                	sd	s0,40(sp)
    50201900:	1800                	addi	s0,sp,48
    50201902:	fca43c23          	sd	a0,-40(s0)
    50201906:	fd843783          	ld	a5,-40(s0)
    5020190a:	fef43423          	sd	a5,-24(s0)
    5020190e:	fe843783          	ld	a5,-24(s0)
    50201912:	17a1                	addi	a5,a5,-24
    50201914:	fef43023          	sd	a5,-32(s0)
    50201918:	fe043783          	ld	a5,-32(s0)
    5020191c:	853e                	mv	a0,a5
    5020191e:	7422                	ld	s0,40(sp)
    50201920:	6145                	addi	sp,sp,48
    50201922:	8082                	ret

0000000050201924 <timer_creat>:
    50201924:	7179                	addi	sp,sp,-48
    50201926:	f406                	sd	ra,40(sp)
    50201928:	f022                	sd	s0,32(sp)
    5020192a:	1800                	addi	s0,sp,48
    5020192c:	fea43423          	sd	a0,-24(s0)
    50201930:	feb43023          	sd	a1,-32(s0)
    50201934:	fcc43c23          	sd	a2,-40(s0)
    50201938:	f78fe0ef          	jal	ra,502000b0 <disable_preempt>
    5020193c:	0fa000ef          	jal	ra,50201a36 <get_ticks>
    50201940:	86aa                	mv	a3,a0
    50201942:	00005797          	auipc	a5,0x5
    50201946:	cc678793          	addi	a5,a5,-826 # 50206608 <current_running>
    5020194a:	639c                	ld	a5,0(a5)
    5020194c:	fd843703          	ld	a4,-40(s0)
    50201950:	9736                	add	a4,a4,a3
    50201952:	e7b8                	sd	a4,72(a5)
    50201954:	00005797          	auipc	a5,0x5
    50201958:	cb478793          	addi	a5,a5,-844 # 50206608 <current_running>
    5020195c:	639c                	ld	a5,0(a5)
    5020195e:	fe843703          	ld	a4,-24(s0)
    50201962:	ebb8                	sd	a4,80(a5)
    50201964:	00005797          	auipc	a5,0x5
    50201968:	ca478793          	addi	a5,a5,-860 # 50206608 <current_running>
    5020196c:	639c                	ld	a5,0(a5)
    5020196e:	fe043703          	ld	a4,-32(s0)
    50201972:	efb8                	sd	a4,88(a5)
    50201974:	00005797          	auipc	a5,0x5
    50201978:	c9478793          	addi	a5,a5,-876 # 50206608 <current_running>
    5020197c:	639c                	ld	a5,0(a5)
    5020197e:	85be                	mv	a1,a5
    50201980:	00002517          	auipc	a0,0x2
    50201984:	62850513          	addi	a0,a0,1576 # 50203fa8 <sleep_queue>
    50201988:	c77ff0ef          	jal	ra,502015fe <add_queue>
    5020198c:	efcfe0ef          	jal	ra,50200088 <enable_preempt>
    50201990:	0001                	nop
    50201992:	70a2                	ld	ra,40(sp)
    50201994:	7402                	ld	s0,32(sp)
    50201996:	6145                	addi	sp,sp,48
    50201998:	8082                	ret

000000005020199a <time_checking>:
    5020199a:	7179                	addi	sp,sp,-48
    5020199c:	f406                	sd	ra,40(sp)
    5020199e:	f022                	sd	s0,32(sp)
    502019a0:	1800                	addi	s0,sp,48
    502019a2:	f0efe0ef          	jal	ra,502000b0 <disable_preempt>
    502019a6:	fe042623          	sw	zero,-20(s0)
    502019aa:	00002797          	auipc	a5,0x2
    502019ae:	5fe78793          	addi	a5,a5,1534 # 50203fa8 <sleep_queue>
    502019b2:	639c                	ld	a5,0(a5)
    502019b4:	fef43023          	sd	a5,-32(s0)
    502019b8:	a0b1                	j	50201a04 <time_checking+0x6a>
    502019ba:	fe043503          	ld	a0,-32(s0)
    502019be:	f3fff0ef          	jal	ra,502018fc <entry_sleep_queue>
    502019c2:	fca43c23          	sd	a0,-40(s0)
    502019c6:	070000ef          	jal	ra,50201a36 <get_ticks>
    502019ca:	fca43823          	sd	a0,-48(s0)
    502019ce:	fd843783          	ld	a5,-40(s0)
    502019d2:	67bc                	ld	a5,72(a5)
    502019d4:	fd043703          	ld	a4,-48(s0)
    502019d8:	02f76163          	bltu	a4,a5,502019fa <time_checking+0x60>
    502019dc:	fe043503          	ld	a0,-32(s0)
    502019e0:	ea9ff0ef          	jal	ra,50201888 <list_del>
    502019e4:	fd843783          	ld	a5,-40(s0)
    502019e8:	6bb8                	ld	a4,80(a5)
    502019ea:	fd843783          	ld	a5,-40(s0)
    502019ee:	6fbc                	ld	a5,88(a5)
    502019f0:	853e                	mv	a0,a5
    502019f2:	9702                	jalr	a4
    502019f4:	4785                	li	a5,1
    502019f6:	fef42623          	sw	a5,-20(s0)
    502019fa:	fe043783          	ld	a5,-32(s0)
    502019fe:	639c                	ld	a5,0(a5)
    50201a00:	fef43023          	sd	a5,-32(s0)
    50201a04:	00002517          	auipc	a0,0x2
    50201a08:	5a450513          	addi	a0,a0,1444 # 50203fa8 <sleep_queue>
    50201a0c:	ec7ff0ef          	jal	ra,502018d2 <list_empty>
    50201a10:	87aa                	mv	a5,a0
    50201a12:	eb89                	bnez	a5,50201a24 <time_checking+0x8a>
    50201a14:	fe043703          	ld	a4,-32(s0)
    50201a18:	00002797          	auipc	a5,0x2
    50201a1c:	59078793          	addi	a5,a5,1424 # 50203fa8 <sleep_queue>
    50201a20:	f8f71de3          	bne	a4,a5,502019ba <time_checking+0x20>
    50201a24:	e64fe0ef          	jal	ra,50200088 <enable_preempt>
    50201a28:	fec42783          	lw	a5,-20(s0)
    50201a2c:	853e                	mv	a0,a5
    50201a2e:	70a2                	ld	ra,40(sp)
    50201a30:	7402                	ld	s0,32(sp)
    50201a32:	6145                	addi	sp,sp,48
    50201a34:	8082                	ret

0000000050201a36 <get_ticks>:
    50201a36:	1141                	addi	sp,sp,-16
    50201a38:	e422                	sd	s0,8(sp)
    50201a3a:	0800                	addi	s0,sp,16
    50201a3c:	c0102773          	rdtime	a4
    50201a40:	83818793          	addi	a5,gp,-1992 # 502044c0 <_edata>
    50201a44:	e398                	sd	a4,0(a5)
    50201a46:	83818793          	addi	a5,gp,-1992 # 502044c0 <_edata>
    50201a4a:	639c                	ld	a5,0(a5)
    50201a4c:	853e                	mv	a0,a5
    50201a4e:	6422                	ld	s0,8(sp)
    50201a50:	0141                	addi	sp,sp,16
    50201a52:	8082                	ret

0000000050201a54 <get_timer>:
    50201a54:	1141                	addi	sp,sp,-16
    50201a56:	e406                	sd	ra,8(sp)
    50201a58:	e022                	sd	s0,0(sp)
    50201a5a:	0800                	addi	s0,sp,16
    50201a5c:	fdbff0ef          	jal	ra,50201a36 <get_ticks>
    50201a60:	872a                	mv	a4,a0
    50201a62:	84018793          	addi	a5,gp,-1984 # 502044c8 <time_base>
    50201a66:	439c                	lw	a5,0(a5)
    50201a68:	1782                	slli	a5,a5,0x20
    50201a6a:	9381                	srli	a5,a5,0x20
    50201a6c:	02f757b3          	divu	a5,a4,a5
    50201a70:	853e                	mv	a0,a5
    50201a72:	60a2                	ld	ra,8(sp)
    50201a74:	6402                	ld	s0,0(sp)
    50201a76:	0141                	addi	sp,sp,16
    50201a78:	8082                	ret

0000000050201a7a <get_time_base>:
    50201a7a:	1141                	addi	sp,sp,-16
    50201a7c:	e422                	sd	s0,8(sp)
    50201a7e:	0800                	addi	s0,sp,16
    50201a80:	84018793          	addi	a5,gp,-1984 # 502044c8 <time_base>
    50201a84:	439c                	lw	a5,0(a5)
    50201a86:	1782                	slli	a5,a5,0x20
    50201a88:	9381                	srli	a5,a5,0x20
    50201a8a:	853e                	mv	a0,a5
    50201a8c:	6422                	ld	s0,8(sp)
    50201a8e:	0141                	addi	sp,sp,16
    50201a90:	8082                	ret

0000000050201a92 <latency>:
    50201a92:	7179                	addi	sp,sp,-48
    50201a94:	f406                	sd	ra,40(sp)
    50201a96:	f022                	sd	s0,32(sp)
    50201a98:	1800                	addi	s0,sp,48
    50201a9a:	fca43c23          	sd	a0,-40(s0)
    50201a9e:	fb7ff0ef          	jal	ra,50201a54 <get_timer>
    50201aa2:	fea43423          	sd	a0,-24(s0)
    50201aa6:	0001                	nop
    50201aa8:	fadff0ef          	jal	ra,50201a54 <get_timer>
    50201aac:	872a                	mv	a4,a0
    50201aae:	fe843783          	ld	a5,-24(s0)
    50201ab2:	40f707b3          	sub	a5,a4,a5
    50201ab6:	fd843703          	ld	a4,-40(s0)
    50201aba:	fee7e7e3          	bltu	a5,a4,50201aa8 <latency+0x16>
    50201abe:	0001                	nop
    50201ac0:	70a2                	ld	ra,40(sp)
    50201ac2:	7402                	ld	s0,32(sp)
    50201ac4:	6145                	addi	sp,sp,48
    50201ac6:	8082                	ret

0000000050201ac8 <allocPage>:
    50201ac8:	7179                	addi	sp,sp,-48
    50201aca:	f422                	sd	s0,40(sp)
    50201acc:	1800                	addi	s0,sp,48
    50201ace:	87aa                	mv	a5,a0
    50201ad0:	fcf42e23          	sw	a5,-36(s0)
    50201ad4:	81818793          	addi	a5,gp,-2024 # 502044a0 <memCurr>
    50201ad8:	6398                	ld	a4,0(a5)
    50201ada:	6785                	lui	a5,0x1
    50201adc:	17fd                	addi	a5,a5,-1
    50201ade:	973e                	add	a4,a4,a5
    50201ae0:	77fd                	lui	a5,0xfffff
    50201ae2:	8ff9                	and	a5,a5,a4
    50201ae4:	fef43423          	sd	a5,-24(s0)
    50201ae8:	fdc42783          	lw	a5,-36(s0)
    50201aec:	00c7979b          	slliw	a5,a5,0xc
    50201af0:	2781                	sext.w	a5,a5
    50201af2:	873e                	mv	a4,a5
    50201af4:	fe843783          	ld	a5,-24(s0)
    50201af8:	973e                	add	a4,a4,a5
    50201afa:	81818793          	addi	a5,gp,-2024 # 502044a0 <memCurr>
    50201afe:	e398                	sd	a4,0(a5)
    50201b00:	fe843783          	ld	a5,-24(s0)
    50201b04:	853e                	mv	a0,a5
    50201b06:	7422                	ld	s0,40(sp)
    50201b08:	6145                	addi	sp,sp,48
    50201b0a:	8082                	ret

0000000050201b0c <kmalloc>:
    50201b0c:	7179                	addi	sp,sp,-48
    50201b0e:	f422                	sd	s0,40(sp)
    50201b10:	1800                	addi	s0,sp,48
    50201b12:	fca43c23          	sd	a0,-40(s0)
    50201b16:	81818793          	addi	a5,gp,-2024 # 502044a0 <memCurr>
    50201b1a:	639c                	ld	a5,0(a5)
    50201b1c:	078d                	addi	a5,a5,3
    50201b1e:	9bf1                	andi	a5,a5,-4
    50201b20:	fef43423          	sd	a5,-24(s0)
    50201b24:	fe843703          	ld	a4,-24(s0)
    50201b28:	fd843783          	ld	a5,-40(s0)
    50201b2c:	973e                	add	a4,a4,a5
    50201b2e:	81818793          	addi	a5,gp,-2024 # 502044a0 <memCurr>
    50201b32:	e398                	sd	a4,0(a5)
    50201b34:	fe843783          	ld	a5,-24(s0)
    50201b38:	853e                	mv	a0,a5
    50201b3a:	7422                	ld	s0,40(sp)
    50201b3c:	6145                	addi	sp,sp,48
    50201b3e:	8082                	ret

0000000050201b40 <handle_syscall>:
    50201b40:	7179                	addi	sp,sp,-48
    50201b42:	f406                	sd	ra,40(sp)
    50201b44:	f022                	sd	s0,32(sp)
    50201b46:	1800                	addi	s0,sp,48
    50201b48:	fea43423          	sd	a0,-24(s0)
    50201b4c:	feb43023          	sd	a1,-32(s0)
    50201b50:	fcc43c23          	sd	a2,-40(s0)
    50201b54:	fe843783          	ld	a5,-24(s0)
    50201b58:	1087b783          	ld	a5,264(a5) # fffffffffffff108 <__BSS_END__+0xffffffffafdf81f8>
    50201b5c:	00478713          	addi	a4,a5,4
    50201b60:	fe843783          	ld	a5,-24(s0)
    50201b64:	10e7b423          	sd	a4,264(a5)
    50201b68:	fe843783          	ld	a5,-24(s0)
    50201b6c:	67dc                	ld	a5,136(a5)
    50201b6e:	00005717          	auipc	a4,0x5
    50201b72:	1a270713          	addi	a4,a4,418 # 50206d10 <syscall>
    50201b76:	078e                	slli	a5,a5,0x3
    50201b78:	97ba                	add	a5,a5,a4
    50201b7a:	0007b803          	ld	a6,0(a5)
    50201b7e:	fe843783          	ld	a5,-24(s0)
    50201b82:	6bb8                	ld	a4,80(a5)
    50201b84:	fe843783          	ld	a5,-24(s0)
    50201b88:	6fb4                	ld	a3,88(a5)
    50201b8a:	fe843783          	ld	a5,-24(s0)
    50201b8e:	73bc                	ld	a5,96(a5)
    50201b90:	863e                	mv	a2,a5
    50201b92:	85b6                	mv	a1,a3
    50201b94:	853a                	mv	a0,a4
    50201b96:	9802                	jalr	a6
    50201b98:	87aa                	mv	a5,a0
    50201b9a:	873e                	mv	a4,a5
    50201b9c:	fe843783          	ld	a5,-24(s0)
    50201ba0:	ebb8                	sd	a4,80(a5)
    50201ba2:	0001                	nop
    50201ba4:	70a2                	ld	ra,40(sp)
    50201ba6:	7402                	ld	s0,32(sp)
    50201ba8:	6145                	addi	sp,sp,48
    50201baa:	8082                	ret

0000000050201bac <kstrlen>:
    50201bac:	7179                	addi	sp,sp,-48
    50201bae:	f422                	sd	s0,40(sp)
    50201bb0:	1800                	addi	s0,sp,48
    50201bb2:	fca43c23          	sd	a0,-40(s0)
    50201bb6:	fe042623          	sw	zero,-20(s0)
    50201bba:	a031                	j	50201bc6 <kstrlen+0x1a>
    50201bbc:	fec42783          	lw	a5,-20(s0)
    50201bc0:	2785                	addiw	a5,a5,1
    50201bc2:	fef42623          	sw	a5,-20(s0)
    50201bc6:	fec42783          	lw	a5,-20(s0)
    50201bca:	fd843703          	ld	a4,-40(s0)
    50201bce:	97ba                	add	a5,a5,a4
    50201bd0:	0007c783          	lbu	a5,0(a5)
    50201bd4:	f7e5                	bnez	a5,50201bbc <kstrlen+0x10>
    50201bd6:	fec42783          	lw	a5,-20(s0)
    50201bda:	853e                	mv	a0,a5
    50201bdc:	7422                	ld	s0,40(sp)
    50201bde:	6145                	addi	sp,sp,48
    50201be0:	8082                	ret

0000000050201be2 <kmemcpy>:
    50201be2:	7179                	addi	sp,sp,-48
    50201be4:	f422                	sd	s0,40(sp)
    50201be6:	1800                	addi	s0,sp,48
    50201be8:	fea43423          	sd	a0,-24(s0)
    50201bec:	feb43023          	sd	a1,-32(s0)
    50201bf0:	87b2                	mv	a5,a2
    50201bf2:	fcf42e23          	sw	a5,-36(s0)
    50201bf6:	a035                	j	50201c22 <kmemcpy+0x40>
    50201bf8:	fe043703          	ld	a4,-32(s0)
    50201bfc:	00170793          	addi	a5,a4,1
    50201c00:	fef43023          	sd	a5,-32(s0)
    50201c04:	fe843783          	ld	a5,-24(s0)
    50201c08:	00178693          	addi	a3,a5,1
    50201c0c:	fed43423          	sd	a3,-24(s0)
    50201c10:	00074703          	lbu	a4,0(a4)
    50201c14:	00e78023          	sb	a4,0(a5)
    50201c18:	fdc42783          	lw	a5,-36(s0)
    50201c1c:	37fd                	addiw	a5,a5,-1
    50201c1e:	fcf42e23          	sw	a5,-36(s0)
    50201c22:	fdc42783          	lw	a5,-36(s0)
    50201c26:	2781                	sext.w	a5,a5
    50201c28:	fbe1                	bnez	a5,50201bf8 <kmemcpy+0x16>
    50201c2a:	0001                	nop
    50201c2c:	0001                	nop
    50201c2e:	7422                	ld	s0,40(sp)
    50201c30:	6145                	addi	sp,sp,48
    50201c32:	8082                	ret

0000000050201c34 <kmemset>:
    50201c34:	7179                	addi	sp,sp,-48
    50201c36:	f422                	sd	s0,40(sp)
    50201c38:	1800                	addi	s0,sp,48
    50201c3a:	fca43c23          	sd	a0,-40(s0)
    50201c3e:	87ae                	mv	a5,a1
    50201c40:	8732                	mv	a4,a2
    50201c42:	fcf40ba3          	sb	a5,-41(s0)
    50201c46:	87ba                	mv	a5,a4
    50201c48:	fcf42823          	sw	a5,-48(s0)
    50201c4c:	fd843783          	ld	a5,-40(s0)
    50201c50:	fef43423          	sd	a5,-24(s0)
    50201c54:	a005                	j	50201c74 <kmemset+0x40>
    50201c56:	fe843783          	ld	a5,-24(s0)
    50201c5a:	00178713          	addi	a4,a5,1
    50201c5e:	fee43423          	sd	a4,-24(s0)
    50201c62:	fd744703          	lbu	a4,-41(s0)
    50201c66:	00e78023          	sb	a4,0(a5)
    50201c6a:	fd042783          	lw	a5,-48(s0)
    50201c6e:	37fd                	addiw	a5,a5,-1
    50201c70:	fcf42823          	sw	a5,-48(s0)
    50201c74:	fd042783          	lw	a5,-48(s0)
    50201c78:	2781                	sext.w	a5,a5
    50201c7a:	fff1                	bnez	a5,50201c56 <kmemset+0x22>
    50201c7c:	0001                	nop
    50201c7e:	0001                	nop
    50201c80:	7422                	ld	s0,40(sp)
    50201c82:	6145                	addi	sp,sp,48
    50201c84:	8082                	ret

0000000050201c86 <kbzero>:
    50201c86:	1101                	addi	sp,sp,-32
    50201c88:	ec06                	sd	ra,24(sp)
    50201c8a:	e822                	sd	s0,16(sp)
    50201c8c:	1000                	addi	s0,sp,32
    50201c8e:	fea43423          	sd	a0,-24(s0)
    50201c92:	87ae                	mv	a5,a1
    50201c94:	fef42223          	sw	a5,-28(s0)
    50201c98:	fe442783          	lw	a5,-28(s0)
    50201c9c:	863e                	mv	a2,a5
    50201c9e:	4581                	li	a1,0
    50201ca0:	fe843503          	ld	a0,-24(s0)
    50201ca4:	f91ff0ef          	jal	ra,50201c34 <kmemset>
    50201ca8:	0001                	nop
    50201caa:	60e2                	ld	ra,24(sp)
    50201cac:	6442                	ld	s0,16(sp)
    50201cae:	6105                	addi	sp,sp,32
    50201cb0:	8082                	ret

0000000050201cb2 <kstrcmp>:
    50201cb2:	1101                	addi	sp,sp,-32
    50201cb4:	ec22                	sd	s0,24(sp)
    50201cb6:	1000                	addi	s0,sp,32
    50201cb8:	fea43423          	sd	a0,-24(s0)
    50201cbc:	feb43023          	sd	a1,-32(s0)
    50201cc0:	a0a1                	j	50201d08 <kstrcmp+0x56>
    50201cc2:	fe843783          	ld	a5,-24(s0)
    50201cc6:	0007c703          	lbu	a4,0(a5)
    50201cca:	fe043783          	ld	a5,-32(s0)
    50201cce:	0007c783          	lbu	a5,0(a5)
    50201cd2:	02f70163          	beq	a4,a5,50201cf4 <kstrcmp+0x42>
    50201cd6:	fe843783          	ld	a5,-24(s0)
    50201cda:	0007c783          	lbu	a5,0(a5)
    50201cde:	0007871b          	sext.w	a4,a5
    50201ce2:	fe043783          	ld	a5,-32(s0)
    50201ce6:	0007c783          	lbu	a5,0(a5)
    50201cea:	2781                	sext.w	a5,a5
    50201cec:	40f707bb          	subw	a5,a4,a5
    50201cf0:	2781                	sext.w	a5,a5
    50201cf2:	a099                	j	50201d38 <kstrcmp+0x86>
    50201cf4:	fe843783          	ld	a5,-24(s0)
    50201cf8:	0785                	addi	a5,a5,1
    50201cfa:	fef43423          	sd	a5,-24(s0)
    50201cfe:	fe043783          	ld	a5,-32(s0)
    50201d02:	0785                	addi	a5,a5,1
    50201d04:	fef43023          	sd	a5,-32(s0)
    50201d08:	fe843783          	ld	a5,-24(s0)
    50201d0c:	0007c783          	lbu	a5,0(a5)
    50201d10:	c791                	beqz	a5,50201d1c <kstrcmp+0x6a>
    50201d12:	fe043783          	ld	a5,-32(s0)
    50201d16:	0007c783          	lbu	a5,0(a5)
    50201d1a:	f7c5                	bnez	a5,50201cc2 <kstrcmp+0x10>
    50201d1c:	fe843783          	ld	a5,-24(s0)
    50201d20:	0007c783          	lbu	a5,0(a5)
    50201d24:	0007871b          	sext.w	a4,a5
    50201d28:	fe043783          	ld	a5,-32(s0)
    50201d2c:	0007c783          	lbu	a5,0(a5)
    50201d30:	2781                	sext.w	a5,a5
    50201d32:	40f707bb          	subw	a5,a4,a5
    50201d36:	2781                	sext.w	a5,a5
    50201d38:	853e                	mv	a0,a5
    50201d3a:	6462                	ld	s0,24(sp)
    50201d3c:	6105                	addi	sp,sp,32
    50201d3e:	8082                	ret

0000000050201d40 <kstrcpy>:
    50201d40:	7179                	addi	sp,sp,-48
    50201d42:	f422                	sd	s0,40(sp)
    50201d44:	1800                	addi	s0,sp,48
    50201d46:	fca43c23          	sd	a0,-40(s0)
    50201d4a:	fcb43823          	sd	a1,-48(s0)
    50201d4e:	fd843783          	ld	a5,-40(s0)
    50201d52:	fef43423          	sd	a5,-24(s0)
    50201d56:	a00d                	j	50201d78 <kstrcpy+0x38>
    50201d58:	fd043703          	ld	a4,-48(s0)
    50201d5c:	00170793          	addi	a5,a4,1
    50201d60:	fcf43823          	sd	a5,-48(s0)
    50201d64:	fd843783          	ld	a5,-40(s0)
    50201d68:	00178693          	addi	a3,a5,1
    50201d6c:	fcd43c23          	sd	a3,-40(s0)
    50201d70:	00074703          	lbu	a4,0(a4)
    50201d74:	00e78023          	sb	a4,0(a5)
    50201d78:	fd043783          	ld	a5,-48(s0)
    50201d7c:	0007c783          	lbu	a5,0(a5)
    50201d80:	ffe1                	bnez	a5,50201d58 <kstrcpy+0x18>
    50201d82:	fd843783          	ld	a5,-40(s0)
    50201d86:	00078023          	sb	zero,0(a5)
    50201d8a:	fe843783          	ld	a5,-24(s0)
    50201d8e:	853e                	mv	a0,a5
    50201d90:	7422                	ld	s0,40(sp)
    50201d92:	6145                	addi	sp,sp,48
    50201d94:	8082                	ret

0000000050201d96 <kstrcat>:
    50201d96:	7179                	addi	sp,sp,-48
    50201d98:	f422                	sd	s0,40(sp)
    50201d9a:	1800                	addi	s0,sp,48
    50201d9c:	fca43c23          	sd	a0,-40(s0)
    50201da0:	fcb43823          	sd	a1,-48(s0)
    50201da4:	fd843783          	ld	a5,-40(s0)
    50201da8:	fef43423          	sd	a5,-24(s0)
    50201dac:	a031                	j	50201db8 <kstrcat+0x22>
    50201dae:	fd843783          	ld	a5,-40(s0)
    50201db2:	0785                	addi	a5,a5,1
    50201db4:	fcf43c23          	sd	a5,-40(s0)
    50201db8:	fd843783          	ld	a5,-40(s0)
    50201dbc:	0007c783          	lbu	a5,0(a5)
    50201dc0:	f7fd                	bnez	a5,50201dae <kstrcat+0x18>
    50201dc2:	a00d                	j	50201de4 <kstrcat+0x4e>
    50201dc4:	fd043703          	ld	a4,-48(s0)
    50201dc8:	00170793          	addi	a5,a4,1
    50201dcc:	fcf43823          	sd	a5,-48(s0)
    50201dd0:	fd843783          	ld	a5,-40(s0)
    50201dd4:	00178693          	addi	a3,a5,1
    50201dd8:	fcd43c23          	sd	a3,-40(s0)
    50201ddc:	00074703          	lbu	a4,0(a4)
    50201de0:	00e78023          	sb	a4,0(a5)
    50201de4:	fd043783          	ld	a5,-48(s0)
    50201de8:	0007c783          	lbu	a5,0(a5)
    50201dec:	ffe1                	bnez	a5,50201dc4 <kstrcat+0x2e>
    50201dee:	fd843783          	ld	a5,-40(s0)
    50201df2:	00078023          	sb	zero,0(a5)
    50201df6:	fe843783          	ld	a5,-24(s0)
    50201dfa:	853e                	mv	a0,a5
    50201dfc:	7422                	ld	s0,40(sp)
    50201dfe:	6145                	addi	sp,sp,48
    50201e00:	8082                	ret

0000000050201e02 <mini_strlen>:
    50201e02:	7179                	addi	sp,sp,-48
    50201e04:	f422                	sd	s0,40(sp)
    50201e06:	1800                	addi	s0,sp,48
    50201e08:	fca43c23          	sd	a0,-40(s0)
    50201e0c:	fe042623          	sw	zero,-20(s0)
    50201e10:	a031                	j	50201e1c <mini_strlen+0x1a>
    50201e12:	fec42783          	lw	a5,-20(s0)
    50201e16:	2785                	addiw	a5,a5,1
    50201e18:	fef42623          	sw	a5,-20(s0)
    50201e1c:	fec46783          	lwu	a5,-20(s0)
    50201e20:	fd843703          	ld	a4,-40(s0)
    50201e24:	97ba                	add	a5,a5,a4
    50201e26:	0007c783          	lbu	a5,0(a5)
    50201e2a:	f7e5                	bnez	a5,50201e12 <mini_strlen+0x10>
    50201e2c:	fec42783          	lw	a5,-20(s0)
    50201e30:	853e                	mv	a0,a5
    50201e32:	7422                	ld	s0,40(sp)
    50201e34:	6145                	addi	sp,sp,48
    50201e36:	8082                	ret

0000000050201e38 <mini_itoa>:
    50201e38:	715d                	addi	sp,sp,-80
    50201e3a:	e4a2                	sd	s0,72(sp)
    50201e3c:	0880                	addi	s0,sp,80
    50201e3e:	fca43423          	sd	a0,-56(s0)
    50201e42:	fae43823          	sd	a4,-80(s0)
    50201e46:	873e                	mv	a4,a5
    50201e48:	87ae                	mv	a5,a1
    50201e4a:	fcf42223          	sw	a5,-60(s0)
    50201e4e:	87b2                	mv	a5,a2
    50201e50:	fcf42023          	sw	a5,-64(s0)
    50201e54:	87b6                	mv	a5,a3
    50201e56:	faf42e23          	sw	a5,-68(s0)
    50201e5a:	87ba                	mv	a5,a4
    50201e5c:	faf42c23          	sw	a5,-72(s0)
    50201e60:	fb043783          	ld	a5,-80(s0)
    50201e64:	fef43423          	sd	a5,-24(s0)
    50201e68:	fe042223          	sw	zero,-28(s0)
    50201e6c:	fc442783          	lw	a5,-60(s0)
    50201e70:	0007871b          	sext.w	a4,a5
    50201e74:	47c1                	li	a5,16
    50201e76:	00e7f463          	bgeu	a5,a4,50201e7e <mini_itoa+0x46>
    50201e7a:	4781                	li	a5,0
    50201e7c:	a255                	j	50202020 <mini_itoa+0x1e8>
    50201e7e:	fc843783          	ld	a5,-56(s0)
    50201e82:	0007df63          	bgez	a5,50201ea0 <mini_itoa+0x68>
    50201e86:	fbc42783          	lw	a5,-68(s0)
    50201e8a:	2781                	sext.w	a5,a5
    50201e8c:	eb91                	bnez	a5,50201ea0 <mini_itoa+0x68>
    50201e8e:	4785                	li	a5,1
    50201e90:	fef42223          	sw	a5,-28(s0)
    50201e94:	fc843783          	ld	a5,-56(s0)
    50201e98:	40f007b3          	neg	a5,a5
    50201e9c:	fcf43423          	sd	a5,-56(s0)
    50201ea0:	fc446783          	lwu	a5,-60(s0)
    50201ea4:	fc843703          	ld	a4,-56(s0)
    50201ea8:	02f767b3          	rem	a5,a4,a5
    50201eac:	fcf42e23          	sw	a5,-36(s0)
    50201eb0:	fdc42783          	lw	a5,-36(s0)
    50201eb4:	0007871b          	sext.w	a4,a5
    50201eb8:	47a5                	li	a5,9
    50201eba:	00e7cb63          	blt	a5,a4,50201ed0 <mini_itoa+0x98>
    50201ebe:	fdc42783          	lw	a5,-36(s0)
    50201ec2:	0ff7f793          	andi	a5,a5,255
    50201ec6:	0307879b          	addiw	a5,a5,48
    50201eca:	0ff7f713          	andi	a4,a5,255
    50201ece:	a025                	j	50201ef6 <mini_itoa+0xbe>
    50201ed0:	fc042783          	lw	a5,-64(s0)
    50201ed4:	2781                	sext.w	a5,a5
    50201ed6:	c781                	beqz	a5,50201ede <mini_itoa+0xa6>
    50201ed8:	04100793          	li	a5,65
    50201edc:	a019                	j	50201ee2 <mini_itoa+0xaa>
    50201ede:	06100793          	li	a5,97
    50201ee2:	fdc42703          	lw	a4,-36(s0)
    50201ee6:	0ff77713          	andi	a4,a4,255
    50201eea:	9fb9                	addw	a5,a5,a4
    50201eec:	0ff7f793          	andi	a5,a5,255
    50201ef0:	37d9                	addiw	a5,a5,-10
    50201ef2:	0ff7f713          	andi	a4,a5,255
    50201ef6:	fe843783          	ld	a5,-24(s0)
    50201efa:	00178693          	addi	a3,a5,1
    50201efe:	fed43423          	sd	a3,-24(s0)
    50201f02:	00e78023          	sb	a4,0(a5)
    50201f06:	fc446783          	lwu	a5,-60(s0)
    50201f0a:	fc843703          	ld	a4,-56(s0)
    50201f0e:	02f747b3          	div	a5,a4,a5
    50201f12:	fcf43423          	sd	a5,-56(s0)
    50201f16:	fc843783          	ld	a5,-56(s0)
    50201f1a:	f8f043e3          	bgtz	a5,50201ea0 <mini_itoa+0x68>
    50201f1e:	fe843703          	ld	a4,-24(s0)
    50201f22:	fb043783          	ld	a5,-80(s0)
    50201f26:	40f707b3          	sub	a5,a4,a5
    50201f2a:	fef42023          	sw	a5,-32(s0)
    50201f2e:	a005                	j	50201f4e <mini_itoa+0x116>
    50201f30:	fe843783          	ld	a5,-24(s0)
    50201f34:	00178713          	addi	a4,a5,1
    50201f38:	fee43423          	sd	a4,-24(s0)
    50201f3c:	03000713          	li	a4,48
    50201f40:	00e78023          	sb	a4,0(a5)
    50201f44:	fe042783          	lw	a5,-32(s0)
    50201f48:	2785                	addiw	a5,a5,1
    50201f4a:	fef42023          	sw	a5,-32(s0)
    50201f4e:	fe042703          	lw	a4,-32(s0)
    50201f52:	fb842783          	lw	a5,-72(s0)
    50201f56:	2701                	sext.w	a4,a4
    50201f58:	2781                	sext.w	a5,a5
    50201f5a:	fcf76be3          	bltu	a4,a5,50201f30 <mini_itoa+0xf8>
    50201f5e:	fe442783          	lw	a5,-28(s0)
    50201f62:	2781                	sext.w	a5,a5
    50201f64:	cb99                	beqz	a5,50201f7a <mini_itoa+0x142>
    50201f66:	fe843783          	ld	a5,-24(s0)
    50201f6a:	00178713          	addi	a4,a5,1
    50201f6e:	fee43423          	sd	a4,-24(s0)
    50201f72:	02d00713          	li	a4,45
    50201f76:	00e78023          	sb	a4,0(a5)
    50201f7a:	fe843783          	ld	a5,-24(s0)
    50201f7e:	00078023          	sb	zero,0(a5)
    50201f82:	fe843703          	ld	a4,-24(s0)
    50201f86:	fb043783          	ld	a5,-80(s0)
    50201f8a:	40f707b3          	sub	a5,a4,a5
    50201f8e:	fcf42c23          	sw	a5,-40(s0)
    50201f92:	fe042023          	sw	zero,-32(s0)
    50201f96:	a885                	j	50202006 <mini_itoa+0x1ce>
    50201f98:	fe046783          	lwu	a5,-32(s0)
    50201f9c:	fb043703          	ld	a4,-80(s0)
    50201fa0:	97ba                	add	a5,a5,a4
    50201fa2:	0007c783          	lbu	a5,0(a5)
    50201fa6:	fcf40ba3          	sb	a5,-41(s0)
    50201faa:	fd842703          	lw	a4,-40(s0)
    50201fae:	fe042783          	lw	a5,-32(s0)
    50201fb2:	40f707bb          	subw	a5,a4,a5
    50201fb6:	2781                	sext.w	a5,a5
    50201fb8:	37fd                	addiw	a5,a5,-1
    50201fba:	2781                	sext.w	a5,a5
    50201fbc:	1782                	slli	a5,a5,0x20
    50201fbe:	9381                	srli	a5,a5,0x20
    50201fc0:	fb043703          	ld	a4,-80(s0)
    50201fc4:	973e                	add	a4,a4,a5
    50201fc6:	fe046783          	lwu	a5,-32(s0)
    50201fca:	fb043683          	ld	a3,-80(s0)
    50201fce:	97b6                	add	a5,a5,a3
    50201fd0:	00074703          	lbu	a4,0(a4)
    50201fd4:	00e78023          	sb	a4,0(a5)
    50201fd8:	fd842703          	lw	a4,-40(s0)
    50201fdc:	fe042783          	lw	a5,-32(s0)
    50201fe0:	40f707bb          	subw	a5,a4,a5
    50201fe4:	2781                	sext.w	a5,a5
    50201fe6:	37fd                	addiw	a5,a5,-1
    50201fe8:	2781                	sext.w	a5,a5
    50201fea:	1782                	slli	a5,a5,0x20
    50201fec:	9381                	srli	a5,a5,0x20
    50201fee:	fb043703          	ld	a4,-80(s0)
    50201ff2:	97ba                	add	a5,a5,a4
    50201ff4:	fd744703          	lbu	a4,-41(s0)
    50201ff8:	00e78023          	sb	a4,0(a5)
    50201ffc:	fe042783          	lw	a5,-32(s0)
    50202000:	2785                	addiw	a5,a5,1
    50202002:	fef42023          	sw	a5,-32(s0)
    50202006:	fd842783          	lw	a5,-40(s0)
    5020200a:	0017d79b          	srliw	a5,a5,0x1
    5020200e:	0007871b          	sext.w	a4,a5
    50202012:	fe042783          	lw	a5,-32(s0)
    50202016:	2781                	sext.w	a5,a5
    50202018:	f8e7e0e3          	bltu	a5,a4,50201f98 <mini_itoa+0x160>
    5020201c:	fd842783          	lw	a5,-40(s0)
    50202020:	853e                	mv	a0,a5
    50202022:	6426                	ld	s0,72(sp)
    50202024:	6161                	addi	sp,sp,80
    50202026:	8082                	ret

0000000050202028 <_putc>:
    50202028:	1101                	addi	sp,sp,-32
    5020202a:	ec22                	sd	s0,24(sp)
    5020202c:	1000                	addi	s0,sp,32
    5020202e:	87aa                	mv	a5,a0
    50202030:	feb43023          	sd	a1,-32(s0)
    50202034:	fef42623          	sw	a5,-20(s0)
    50202038:	fe043783          	ld	a5,-32(s0)
    5020203c:	6798                	ld	a4,8(a5)
    5020203e:	fe043783          	ld	a5,-32(s0)
    50202042:	639c                	ld	a5,0(a5)
    50202044:	40f707b3          	sub	a5,a4,a5
    50202048:	2781                	sext.w	a5,a5
    5020204a:	2785                	addiw	a5,a5,1
    5020204c:	0007871b          	sext.w	a4,a5
    50202050:	fe043783          	ld	a5,-32(s0)
    50202054:	4b9c                	lw	a5,16(a5)
    50202056:	00f76463          	bltu	a4,a5,5020205e <_putc+0x36>
    5020205a:	4781                	li	a5,0
    5020205c:	a02d                	j	50202086 <_putc+0x5e>
    5020205e:	fe043783          	ld	a5,-32(s0)
    50202062:	679c                	ld	a5,8(a5)
    50202064:	00178693          	addi	a3,a5,1
    50202068:	fe043703          	ld	a4,-32(s0)
    5020206c:	e714                	sd	a3,8(a4)
    5020206e:	fec42703          	lw	a4,-20(s0)
    50202072:	0ff77713          	andi	a4,a4,255
    50202076:	00e78023          	sb	a4,0(a5)
    5020207a:	fe043783          	ld	a5,-32(s0)
    5020207e:	679c                	ld	a5,8(a5)
    50202080:	00078023          	sb	zero,0(a5)
    50202084:	4785                	li	a5,1
    50202086:	853e                	mv	a0,a5
    50202088:	6462                	ld	s0,24(sp)
    5020208a:	6105                	addi	sp,sp,32
    5020208c:	8082                	ret

000000005020208e <_puts>:
    5020208e:	7139                	addi	sp,sp,-64
    50202090:	fc22                	sd	s0,56(sp)
    50202092:	0080                	addi	s0,sp,64
    50202094:	fca43c23          	sd	a0,-40(s0)
    50202098:	87ae                	mv	a5,a1
    5020209a:	fcc43423          	sd	a2,-56(s0)
    5020209e:	fcf42a23          	sw	a5,-44(s0)
    502020a2:	fc843783          	ld	a5,-56(s0)
    502020a6:	4b9c                	lw	a5,16(a5)
    502020a8:	02079713          	slli	a4,a5,0x20
    502020ac:	9301                	srli	a4,a4,0x20
    502020ae:	fc843783          	ld	a5,-56(s0)
    502020b2:	6794                	ld	a3,8(a5)
    502020b4:	fc843783          	ld	a5,-56(s0)
    502020b8:	639c                	ld	a5,0(a5)
    502020ba:	40f687b3          	sub	a5,a3,a5
    502020be:	8f1d                	sub	a4,a4,a5
    502020c0:	fd446783          	lwu	a5,-44(s0)
    502020c4:	02e7c463          	blt	a5,a4,502020ec <_puts+0x5e>
    502020c8:	fc843783          	ld	a5,-56(s0)
    502020cc:	4b98                	lw	a4,16(a5)
    502020ce:	fc843783          	ld	a5,-56(s0)
    502020d2:	6794                	ld	a3,8(a5)
    502020d4:	fc843783          	ld	a5,-56(s0)
    502020d8:	639c                	ld	a5,0(a5)
    502020da:	40f687b3          	sub	a5,a3,a5
    502020de:	2781                	sext.w	a5,a5
    502020e0:	40f707bb          	subw	a5,a4,a5
    502020e4:	2781                	sext.w	a5,a5
    502020e6:	37fd                	addiw	a5,a5,-1
    502020e8:	fcf42a23          	sw	a5,-44(s0)
    502020ec:	fe042623          	sw	zero,-20(s0)
    502020f0:	a03d                	j	5020211e <_puts+0x90>
    502020f2:	fec46783          	lwu	a5,-20(s0)
    502020f6:	fd843703          	ld	a4,-40(s0)
    502020fa:	973e                	add	a4,a4,a5
    502020fc:	fc843783          	ld	a5,-56(s0)
    50202100:	679c                	ld	a5,8(a5)
    50202102:	00178613          	addi	a2,a5,1
    50202106:	fc843683          	ld	a3,-56(s0)
    5020210a:	e690                	sd	a2,8(a3)
    5020210c:	00074703          	lbu	a4,0(a4)
    50202110:	00e78023          	sb	a4,0(a5)
    50202114:	fec42783          	lw	a5,-20(s0)
    50202118:	2785                	addiw	a5,a5,1
    5020211a:	fef42623          	sw	a5,-20(s0)
    5020211e:	fec42703          	lw	a4,-20(s0)
    50202122:	fd442783          	lw	a5,-44(s0)
    50202126:	2701                	sext.w	a4,a4
    50202128:	2781                	sext.w	a5,a5
    5020212a:	fcf764e3          	bltu	a4,a5,502020f2 <_puts+0x64>
    5020212e:	fc843783          	ld	a5,-56(s0)
    50202132:	679c                	ld	a5,8(a5)
    50202134:	00078023          	sb	zero,0(a5)
    50202138:	fd442783          	lw	a5,-44(s0)
    5020213c:	853e                	mv	a0,a5
    5020213e:	7462                	ld	s0,56(sp)
    50202140:	6121                	addi	sp,sp,64
    50202142:	8082                	ret

0000000050202144 <mini_vsnprintf>:
    50202144:	7119                	addi	sp,sp,-128
    50202146:	fc86                	sd	ra,120(sp)
    50202148:	f8a2                	sd	s0,112(sp)
    5020214a:	0100                	addi	s0,sp,128
    5020214c:	f8a43c23          	sd	a0,-104(s0)
    50202150:	87ae                	mv	a5,a1
    50202152:	f8c43423          	sd	a2,-120(s0)
    50202156:	f8d43023          	sd	a3,-128(s0)
    5020215a:	f8f42a23          	sw	a5,-108(s0)
    5020215e:	f9843783          	ld	a5,-104(s0)
    50202162:	fcf43023          	sd	a5,-64(s0)
    50202166:	f9843783          	ld	a5,-104(s0)
    5020216a:	fcf43423          	sd	a5,-56(s0)
    5020216e:	f9442783          	lw	a5,-108(s0)
    50202172:	fcf42823          	sw	a5,-48(s0)
    50202176:	a4f9                	j	50202444 <mini_vsnprintf+0x300>
    50202178:	fc843703          	ld	a4,-56(s0)
    5020217c:	fc043783          	ld	a5,-64(s0)
    50202180:	40f707b3          	sub	a5,a4,a5
    50202184:	2781                	sext.w	a5,a5
    50202186:	2785                	addiw	a5,a5,1
    50202188:	0007871b          	sext.w	a4,a5
    5020218c:	fd042783          	lw	a5,-48(s0)
    50202190:	2cf77b63          	bgeu	a4,a5,50202466 <mini_vsnprintf+0x322>
    50202194:	fef44783          	lbu	a5,-17(s0)
    50202198:	0ff7f713          	andi	a4,a5,255
    5020219c:	02500793          	li	a5,37
    502021a0:	00f70c63          	beq	a4,a5,502021b8 <mini_vsnprintf+0x74>
    502021a4:	fef44783          	lbu	a5,-17(s0)
    502021a8:	2781                	sext.w	a5,a5
    502021aa:	fc040713          	addi	a4,s0,-64
    502021ae:	85ba                	mv	a1,a4
    502021b0:	853e                	mv	a0,a5
    502021b2:	e77ff0ef          	jal	ra,50202028 <_putc>
    502021b6:	a479                	j	50202444 <mini_vsnprintf+0x300>
    502021b8:	fe040723          	sb	zero,-18(s0)
    502021bc:	fe042423          	sw	zero,-24(s0)
    502021c0:	f8843783          	ld	a5,-120(s0)
    502021c4:	00178713          	addi	a4,a5,1
    502021c8:	f8e43423          	sd	a4,-120(s0)
    502021cc:	0007c783          	lbu	a5,0(a5)
    502021d0:	fef407a3          	sb	a5,-17(s0)
    502021d4:	fef44783          	lbu	a5,-17(s0)
    502021d8:	0ff7f713          	andi	a4,a5,255
    502021dc:	03000793          	li	a5,48
    502021e0:	06f71b63          	bne	a4,a5,50202256 <mini_vsnprintf+0x112>
    502021e4:	a891                	j	50202238 <mini_vsnprintf+0xf4>
    502021e6:	fef44783          	lbu	a5,-17(s0)
    502021ea:	0ff7f793          	andi	a5,a5,255
    502021ee:	26078e63          	beqz	a5,5020246a <mini_vsnprintf+0x326>
    502021f2:	fef44783          	lbu	a5,-17(s0)
    502021f6:	0ff7f713          	andi	a4,a5,255
    502021fa:	02f00793          	li	a5,47
    502021fe:	04e7fc63          	bgeu	a5,a4,50202256 <mini_vsnprintf+0x112>
    50202202:	fef44783          	lbu	a5,-17(s0)
    50202206:	0ff7f713          	andi	a4,a5,255
    5020220a:	03900793          	li	a5,57
    5020220e:	04e7e463          	bltu	a5,a4,50202256 <mini_vsnprintf+0x112>
    50202212:	fee44703          	lbu	a4,-18(s0)
    50202216:	87ba                	mv	a5,a4
    50202218:	0027979b          	slliw	a5,a5,0x2
    5020221c:	9fb9                	addw	a5,a5,a4
    5020221e:	0017979b          	slliw	a5,a5,0x1
    50202222:	0ff7f793          	andi	a5,a5,255
    50202226:	fef44703          	lbu	a4,-17(s0)
    5020222a:	9fb9                	addw	a5,a5,a4
    5020222c:	0ff7f793          	andi	a5,a5,255
    50202230:	fd07879b          	addiw	a5,a5,-48
    50202234:	fef40723          	sb	a5,-18(s0)
    50202238:	f8843783          	ld	a5,-120(s0)
    5020223c:	00178713          	addi	a4,a5,1
    50202240:	f8e43423          	sd	a4,-120(s0)
    50202244:	0007c783          	lbu	a5,0(a5)
    50202248:	fef407a3          	sb	a5,-17(s0)
    5020224c:	fef44783          	lbu	a5,-17(s0)
    50202250:	0ff7f793          	andi	a5,a5,255
    50202254:	fbc9                	bnez	a5,502021e6 <mini_vsnprintf+0xa2>
    50202256:	fef44783          	lbu	a5,-17(s0)
    5020225a:	0ff7f713          	andi	a4,a5,255
    5020225e:	06c00793          	li	a5,108
    50202262:	00f71f63          	bne	a4,a5,50202280 <mini_vsnprintf+0x13c>
    50202266:	4785                	li	a5,1
    50202268:	fef42423          	sw	a5,-24(s0)
    5020226c:	f8843783          	ld	a5,-120(s0)
    50202270:	00178713          	addi	a4,a5,1
    50202274:	f8e43423          	sd	a4,-120(s0)
    50202278:	0007c783          	lbu	a5,0(a5)
    5020227c:	fef407a3          	sb	a5,-17(s0)
    50202280:	fef44783          	lbu	a5,-17(s0)
    50202284:	2781                	sext.w	a5,a5
    50202286:	1e078463          	beqz	a5,5020246e <mini_vsnprintf+0x32a>
    5020228a:	873e                	mv	a4,a5
    5020228c:	1a074263          	bltz	a4,50202430 <mini_vsnprintf+0x2ec>
    50202290:	86be                	mv	a3,a5
    50202292:	07800713          	li	a4,120
    50202296:	18d74d63          	blt	a4,a3,50202430 <mini_vsnprintf+0x2ec>
    5020229a:	86be                	mv	a3,a5
    5020229c:	05800713          	li	a4,88
    502022a0:	18e6c863          	blt	a3,a4,50202430 <mini_vsnprintf+0x2ec>
    502022a4:	fa87869b          	addiw	a3,a5,-88
    502022a8:	0006871b          	sext.w	a4,a3
    502022ac:	02000793          	li	a5,32
    502022b0:	18e7e063          	bltu	a5,a4,50202430 <mini_vsnprintf+0x2ec>
    502022b4:	02069793          	slli	a5,a3,0x20
    502022b8:	9381                	srli	a5,a5,0x20
    502022ba:	00279713          	slli	a4,a5,0x2
    502022be:	00002797          	auipc	a5,0x2
    502022c2:	8ce78793          	addi	a5,a5,-1842 # 50203b8c <__FUNCTION__.1316+0xc>
    502022c6:	97ba                	add	a5,a5,a4
    502022c8:	439c                	lw	a5,0(a5)
    502022ca:	0007871b          	sext.w	a4,a5
    502022ce:	00002797          	auipc	a5,0x2
    502022d2:	8be78793          	addi	a5,a5,-1858 # 50203b8c <__FUNCTION__.1316+0xc>
    502022d6:	97ba                	add	a5,a5,a4
    502022d8:	8782                	jr	a5
    502022da:	4785                	li	a5,1
    502022dc:	fef42423          	sw	a5,-24(s0)
    502022e0:	a295                	j	50202444 <mini_vsnprintf+0x300>
    502022e2:	fe842783          	lw	a5,-24(s0)
    502022e6:	2781                	sext.w	a5,a5
    502022e8:	ef81                	bnez	a5,50202300 <mini_vsnprintf+0x1bc>
    502022ea:	f8043783          	ld	a5,-128(s0)
    502022ee:	00878713          	addi	a4,a5,8
    502022f2:	f8e43023          	sd	a4,-128(s0)
    502022f6:	439c                	lw	a5,0(a5)
    502022f8:	02079513          	slli	a0,a5,0x20
    502022fc:	9101                	srli	a0,a0,0x20
    502022fe:	a809                	j	50202310 <mini_vsnprintf+0x1cc>
    50202300:	f8043783          	ld	a5,-128(s0)
    50202304:	00878713          	addi	a4,a5,8
    50202308:	f8e43023          	sd	a4,-128(s0)
    5020230c:	639c                	ld	a5,0(a5)
    5020230e:	853e                	mv	a0,a5
    50202310:	fef44783          	lbu	a5,-17(s0)
    50202314:	0007871b          	sext.w	a4,a5
    50202318:	07500793          	li	a5,117
    5020231c:	40f707b3          	sub	a5,a4,a5
    50202320:	0017b793          	seqz	a5,a5
    50202324:	0ff7f793          	andi	a5,a5,255
    50202328:	0007869b          	sext.w	a3,a5
    5020232c:	fee44783          	lbu	a5,-18(s0)
    50202330:	2781                	sext.w	a5,a5
    50202332:	fa840713          	addi	a4,s0,-88
    50202336:	4601                	li	a2,0
    50202338:	45a9                	li	a1,10
    5020233a:	affff0ef          	jal	ra,50201e38 <mini_itoa>
    5020233e:	87aa                	mv	a5,a0
    50202340:	fcf42e23          	sw	a5,-36(s0)
    50202344:	fc040693          	addi	a3,s0,-64
    50202348:	fdc42703          	lw	a4,-36(s0)
    5020234c:	fa840793          	addi	a5,s0,-88
    50202350:	8636                	mv	a2,a3
    50202352:	85ba                	mv	a1,a4
    50202354:	853e                	mv	a0,a5
    50202356:	d39ff0ef          	jal	ra,5020208e <_puts>
    5020235a:	fe042423          	sw	zero,-24(s0)
    5020235e:	a0dd                	j	50202444 <mini_vsnprintf+0x300>
    50202360:	fe842783          	lw	a5,-24(s0)
    50202364:	2781                	sext.w	a5,a5
    50202366:	ef81                	bnez	a5,5020237e <mini_vsnprintf+0x23a>
    50202368:	f8043783          	ld	a5,-128(s0)
    5020236c:	00878713          	addi	a4,a5,8
    50202370:	f8e43023          	sd	a4,-128(s0)
    50202374:	439c                	lw	a5,0(a5)
    50202376:	02079513          	slli	a0,a5,0x20
    5020237a:	9101                	srli	a0,a0,0x20
    5020237c:	a809                	j	5020238e <mini_vsnprintf+0x24a>
    5020237e:	f8043783          	ld	a5,-128(s0)
    50202382:	00878713          	addi	a4,a5,8
    50202386:	f8e43023          	sd	a4,-128(s0)
    5020238a:	639c                	ld	a5,0(a5)
    5020238c:	853e                	mv	a0,a5
    5020238e:	fef44783          	lbu	a5,-17(s0)
    50202392:	0007871b          	sext.w	a4,a5
    50202396:	05800793          	li	a5,88
    5020239a:	40f707b3          	sub	a5,a4,a5
    5020239e:	0017b793          	seqz	a5,a5
    502023a2:	0ff7f793          	andi	a5,a5,255
    502023a6:	0007861b          	sext.w	a2,a5
    502023aa:	fee44783          	lbu	a5,-18(s0)
    502023ae:	2781                	sext.w	a5,a5
    502023b0:	fa840713          	addi	a4,s0,-88
    502023b4:	4685                	li	a3,1
    502023b6:	45c1                	li	a1,16
    502023b8:	a81ff0ef          	jal	ra,50201e38 <mini_itoa>
    502023bc:	87aa                	mv	a5,a0
    502023be:	fcf42e23          	sw	a5,-36(s0)
    502023c2:	fc040693          	addi	a3,s0,-64
    502023c6:	fdc42703          	lw	a4,-36(s0)
    502023ca:	fa840793          	addi	a5,s0,-88
    502023ce:	8636                	mv	a2,a3
    502023d0:	85ba                	mv	a1,a4
    502023d2:	853e                	mv	a0,a5
    502023d4:	cbbff0ef          	jal	ra,5020208e <_puts>
    502023d8:	fe042423          	sw	zero,-24(s0)
    502023dc:	a0a5                	j	50202444 <mini_vsnprintf+0x300>
    502023de:	f8043783          	ld	a5,-128(s0)
    502023e2:	00878713          	addi	a4,a5,8
    502023e6:	f8e43023          	sd	a4,-128(s0)
    502023ea:	439c                	lw	a5,0(a5)
    502023ec:	0ff7f793          	andi	a5,a5,255
    502023f0:	2781                	sext.w	a5,a5
    502023f2:	fc040713          	addi	a4,s0,-64
    502023f6:	85ba                	mv	a1,a4
    502023f8:	853e                	mv	a0,a5
    502023fa:	c2fff0ef          	jal	ra,50202028 <_putc>
    502023fe:	a099                	j	50202444 <mini_vsnprintf+0x300>
    50202400:	f8043783          	ld	a5,-128(s0)
    50202404:	00878713          	addi	a4,a5,8
    50202408:	f8e43023          	sd	a4,-128(s0)
    5020240c:	639c                	ld	a5,0(a5)
    5020240e:	fef43023          	sd	a5,-32(s0)
    50202412:	fe043503          	ld	a0,-32(s0)
    50202416:	9edff0ef          	jal	ra,50201e02 <mini_strlen>
    5020241a:	87aa                	mv	a5,a0
    5020241c:	2781                	sext.w	a5,a5
    5020241e:	fc040713          	addi	a4,s0,-64
    50202422:	863a                	mv	a2,a4
    50202424:	85be                	mv	a1,a5
    50202426:	fe043503          	ld	a0,-32(s0)
    5020242a:	c65ff0ef          	jal	ra,5020208e <_puts>
    5020242e:	a819                	j	50202444 <mini_vsnprintf+0x300>
    50202430:	fef44783          	lbu	a5,-17(s0)
    50202434:	2781                	sext.w	a5,a5
    50202436:	fc040713          	addi	a4,s0,-64
    5020243a:	85ba                	mv	a1,a4
    5020243c:	853e                	mv	a0,a5
    5020243e:	bebff0ef          	jal	ra,50202028 <_putc>
    50202442:	0001                	nop
    50202444:	f8843783          	ld	a5,-120(s0)
    50202448:	00178713          	addi	a4,a5,1
    5020244c:	f8e43423          	sd	a4,-120(s0)
    50202450:	0007c783          	lbu	a5,0(a5)
    50202454:	fef407a3          	sb	a5,-17(s0)
    50202458:	fef44783          	lbu	a5,-17(s0)
    5020245c:	0ff7f793          	andi	a5,a5,255
    50202460:	d0079ce3          	bnez	a5,50202178 <mini_vsnprintf+0x34>
    50202464:	a031                	j	50202470 <mini_vsnprintf+0x32c>
    50202466:	0001                	nop
    50202468:	a021                	j	50202470 <mini_vsnprintf+0x32c>
    5020246a:	0001                	nop
    5020246c:	a011                	j	50202470 <mini_vsnprintf+0x32c>
    5020246e:	0001                	nop
    50202470:	fc843703          	ld	a4,-56(s0)
    50202474:	fc043783          	ld	a5,-64(s0)
    50202478:	40f707b3          	sub	a5,a4,a5
    5020247c:	2781                	sext.w	a5,a5
    5020247e:	853e                	mv	a0,a5
    50202480:	70e6                	ld	ra,120(sp)
    50202482:	7446                	ld	s0,112(sp)
    50202484:	6109                	addi	sp,sp,128
    50202486:	8082                	ret

0000000050202488 <vprintk>:
    50202488:	7169                	addi	sp,sp,-304
    5020248a:	f606                	sd	ra,296(sp)
    5020248c:	f222                	sd	s0,288(sp)
    5020248e:	1a00                	addi	s0,sp,304
    50202490:	eca43c23          	sd	a0,-296(s0)
    50202494:	ecb43823          	sd	a1,-304(s0)
    50202498:	ed043783          	ld	a5,-304(s0)
    5020249c:	fef43023          	sd	a5,-32(s0)
    502024a0:	fe043703          	ld	a4,-32(s0)
    502024a4:	ee040793          	addi	a5,s0,-288
    502024a8:	86ba                	mv	a3,a4
    502024aa:	ed843603          	ld	a2,-296(s0)
    502024ae:	10000593          	li	a1,256
    502024b2:	853e                	mv	a0,a5
    502024b4:	c91ff0ef          	jal	ra,50202144 <mini_vsnprintf>
    502024b8:	87aa                	mv	a5,a0
    502024ba:	fef42423          	sw	a5,-24(s0)
    502024be:	fe842783          	lw	a5,-24(s0)
    502024c2:	ff040713          	addi	a4,s0,-16
    502024c6:	97ba                	add	a5,a5,a4
    502024c8:	ee078823          	sb	zero,-272(a5)
    502024cc:	be5fd0ef          	jal	ra,502000b0 <disable_preempt>
    502024d0:	ee040793          	addi	a5,s0,-288
    502024d4:	853e                	mv	a0,a5
    502024d6:	dd5fd0ef          	jal	ra,502002aa <port_write>
    502024da:	fe042623          	sw	zero,-20(s0)
    502024de:	a0bd                	j	5020254c <vprintk+0xc4>
    502024e0:	fec42783          	lw	a5,-20(s0)
    502024e4:	ff040713          	addi	a4,s0,-16
    502024e8:	97ba                	add	a5,a5,a4
    502024ea:	ef07c783          	lbu	a5,-272(a5)
    502024ee:	873e                	mv	a4,a5
    502024f0:	47a9                	li	a5,10
    502024f2:	00f71c63          	bne	a4,a5,5020250a <vprintk+0x82>
    502024f6:	00004797          	auipc	a5,0x4
    502024fa:	11278793          	addi	a5,a5,274 # 50206608 <current_running>
    502024fe:	639c                	ld	a5,0(a5)
    50202500:	43b8                	lw	a4,64(a5)
    50202502:	2705                	addiw	a4,a4,1
    50202504:	2701                	sext.w	a4,a4
    50202506:	c3b8                	sw	a4,64(a5)
    50202508:	a82d                	j	50202542 <vprintk+0xba>
    5020250a:	fec42783          	lw	a5,-20(s0)
    5020250e:	ff040713          	addi	a4,s0,-16
    50202512:	97ba                	add	a5,a5,a4
    50202514:	ef07c783          	lbu	a5,-272(a5)
    50202518:	873e                	mv	a4,a5
    5020251a:	47b5                	li	a5,13
    5020251c:	00f71a63          	bne	a4,a5,50202530 <vprintk+0xa8>
    50202520:	00004797          	auipc	a5,0x4
    50202524:	0e878793          	addi	a5,a5,232 # 50206608 <current_running>
    50202528:	639c                	ld	a5,0(a5)
    5020252a:	4705                	li	a4,1
    5020252c:	dfd8                	sw	a4,60(a5)
    5020252e:	a811                	j	50202542 <vprintk+0xba>
    50202530:	00004797          	auipc	a5,0x4
    50202534:	0d878793          	addi	a5,a5,216 # 50206608 <current_running>
    50202538:	639c                	ld	a5,0(a5)
    5020253a:	5fd8                	lw	a4,60(a5)
    5020253c:	2705                	addiw	a4,a4,1
    5020253e:	2701                	sext.w	a4,a4
    50202540:	dfd8                	sw	a4,60(a5)
    50202542:	fec42783          	lw	a5,-20(s0)
    50202546:	2785                	addiw	a5,a5,1
    50202548:	fef42623          	sw	a5,-20(s0)
    5020254c:	fec42703          	lw	a4,-20(s0)
    50202550:	fe842783          	lw	a5,-24(s0)
    50202554:	2701                	sext.w	a4,a4
    50202556:	2781                	sext.w	a5,a5
    50202558:	f8f744e3          	blt	a4,a5,502024e0 <vprintk+0x58>
    5020255c:	b2dfd0ef          	jal	ra,50200088 <enable_preempt>
    50202560:	fe842783          	lw	a5,-24(s0)
    50202564:	853e                	mv	a0,a5
    50202566:	70b2                	ld	ra,296(sp)
    50202568:	7412                	ld	s0,288(sp)
    5020256a:	6155                	addi	sp,sp,304
    5020256c:	8082                	ret

000000005020256e <printk>:
    5020256e:	7159                	addi	sp,sp,-112
    50202570:	f406                	sd	ra,40(sp)
    50202572:	f022                	sd	s0,32(sp)
    50202574:	1800                	addi	s0,sp,48
    50202576:	fca43c23          	sd	a0,-40(s0)
    5020257a:	e40c                	sd	a1,8(s0)
    5020257c:	e810                	sd	a2,16(s0)
    5020257e:	ec14                	sd	a3,24(s0)
    50202580:	f018                	sd	a4,32(s0)
    50202582:	f41c                	sd	a5,40(s0)
    50202584:	03043823          	sd	a6,48(s0)
    50202588:	03143c23          	sd	a7,56(s0)
    5020258c:	fe042623          	sw	zero,-20(s0)
    50202590:	04040793          	addi	a5,s0,64
    50202594:	fcf43823          	sd	a5,-48(s0)
    50202598:	fd043783          	ld	a5,-48(s0)
    5020259c:	fc878793          	addi	a5,a5,-56
    502025a0:	fef43023          	sd	a5,-32(s0)
    502025a4:	fe043783          	ld	a5,-32(s0)
    502025a8:	85be                	mv	a1,a5
    502025aa:	fd843503          	ld	a0,-40(s0)
    502025ae:	edbff0ef          	jal	ra,50202488 <vprintk>
    502025b2:	87aa                	mv	a5,a0
    502025b4:	fef42623          	sw	a5,-20(s0)
    502025b8:	fec42783          	lw	a5,-20(s0)
    502025bc:	853e                	mv	a0,a5
    502025be:	70a2                	ld	ra,40(sp)
    502025c0:	7402                	ld	s0,32(sp)
    502025c2:	6165                	addi	sp,sp,112
    502025c4:	8082                	ret

00000000502025c6 <mini_itoa>:
    502025c6:	715d                	addi	sp,sp,-80
    502025c8:	e4a2                	sd	s0,72(sp)
    502025ca:	0880                	addi	s0,sp,80
    502025cc:	fca43423          	sd	a0,-56(s0)
    502025d0:	fae43823          	sd	a4,-80(s0)
    502025d4:	873e                	mv	a4,a5
    502025d6:	87ae                	mv	a5,a1
    502025d8:	fcf42223          	sw	a5,-60(s0)
    502025dc:	87b2                	mv	a5,a2
    502025de:	fcf42023          	sw	a5,-64(s0)
    502025e2:	87b6                	mv	a5,a3
    502025e4:	faf42e23          	sw	a5,-68(s0)
    502025e8:	87ba                	mv	a5,a4
    502025ea:	faf42c23          	sw	a5,-72(s0)
    502025ee:	fb043783          	ld	a5,-80(s0)
    502025f2:	fef43423          	sd	a5,-24(s0)
    502025f6:	fe042223          	sw	zero,-28(s0)
    502025fa:	fc442783          	lw	a5,-60(s0)
    502025fe:	0007871b          	sext.w	a4,a5
    50202602:	47c1                	li	a5,16
    50202604:	00e7f463          	bgeu	a5,a4,5020260c <mini_itoa+0x46>
    50202608:	4781                	li	a5,0
    5020260a:	a255                	j	502027ae <mini_itoa+0x1e8>
    5020260c:	fc843783          	ld	a5,-56(s0)
    50202610:	0007df63          	bgez	a5,5020262e <mini_itoa+0x68>
    50202614:	fbc42783          	lw	a5,-68(s0)
    50202618:	2781                	sext.w	a5,a5
    5020261a:	eb91                	bnez	a5,5020262e <mini_itoa+0x68>
    5020261c:	4785                	li	a5,1
    5020261e:	fef42223          	sw	a5,-28(s0)
    50202622:	fc843783          	ld	a5,-56(s0)
    50202626:	40f007b3          	neg	a5,a5
    5020262a:	fcf43423          	sd	a5,-56(s0)
    5020262e:	fc446783          	lwu	a5,-60(s0)
    50202632:	fc843703          	ld	a4,-56(s0)
    50202636:	02f767b3          	rem	a5,a4,a5
    5020263a:	fcf42e23          	sw	a5,-36(s0)
    5020263e:	fdc42783          	lw	a5,-36(s0)
    50202642:	0007871b          	sext.w	a4,a5
    50202646:	47a5                	li	a5,9
    50202648:	00e7cb63          	blt	a5,a4,5020265e <mini_itoa+0x98>
    5020264c:	fdc42783          	lw	a5,-36(s0)
    50202650:	0ff7f793          	andi	a5,a5,255
    50202654:	0307879b          	addiw	a5,a5,48
    50202658:	0ff7f713          	andi	a4,a5,255
    5020265c:	a025                	j	50202684 <mini_itoa+0xbe>
    5020265e:	fc042783          	lw	a5,-64(s0)
    50202662:	2781                	sext.w	a5,a5
    50202664:	c781                	beqz	a5,5020266c <mini_itoa+0xa6>
    50202666:	04100793          	li	a5,65
    5020266a:	a019                	j	50202670 <mini_itoa+0xaa>
    5020266c:	06100793          	li	a5,97
    50202670:	fdc42703          	lw	a4,-36(s0)
    50202674:	0ff77713          	andi	a4,a4,255
    50202678:	9fb9                	addw	a5,a5,a4
    5020267a:	0ff7f793          	andi	a5,a5,255
    5020267e:	37d9                	addiw	a5,a5,-10
    50202680:	0ff7f713          	andi	a4,a5,255
    50202684:	fe843783          	ld	a5,-24(s0)
    50202688:	00178693          	addi	a3,a5,1
    5020268c:	fed43423          	sd	a3,-24(s0)
    50202690:	00e78023          	sb	a4,0(a5)
    50202694:	fc446783          	lwu	a5,-60(s0)
    50202698:	fc843703          	ld	a4,-56(s0)
    5020269c:	02f747b3          	div	a5,a4,a5
    502026a0:	fcf43423          	sd	a5,-56(s0)
    502026a4:	fc843783          	ld	a5,-56(s0)
    502026a8:	f8f043e3          	bgtz	a5,5020262e <mini_itoa+0x68>
    502026ac:	fe843703          	ld	a4,-24(s0)
    502026b0:	fb043783          	ld	a5,-80(s0)
    502026b4:	40f707b3          	sub	a5,a4,a5
    502026b8:	fef42023          	sw	a5,-32(s0)
    502026bc:	a005                	j	502026dc <mini_itoa+0x116>
    502026be:	fe843783          	ld	a5,-24(s0)
    502026c2:	00178713          	addi	a4,a5,1
    502026c6:	fee43423          	sd	a4,-24(s0)
    502026ca:	03000713          	li	a4,48
    502026ce:	00e78023          	sb	a4,0(a5)
    502026d2:	fe042783          	lw	a5,-32(s0)
    502026d6:	2785                	addiw	a5,a5,1
    502026d8:	fef42023          	sw	a5,-32(s0)
    502026dc:	fe042703          	lw	a4,-32(s0)
    502026e0:	fb842783          	lw	a5,-72(s0)
    502026e4:	2701                	sext.w	a4,a4
    502026e6:	2781                	sext.w	a5,a5
    502026e8:	fcf76be3          	bltu	a4,a5,502026be <mini_itoa+0xf8>
    502026ec:	fe442783          	lw	a5,-28(s0)
    502026f0:	2781                	sext.w	a5,a5
    502026f2:	cb99                	beqz	a5,50202708 <mini_itoa+0x142>
    502026f4:	fe843783          	ld	a5,-24(s0)
    502026f8:	00178713          	addi	a4,a5,1
    502026fc:	fee43423          	sd	a4,-24(s0)
    50202700:	02d00713          	li	a4,45
    50202704:	00e78023          	sb	a4,0(a5)
    50202708:	fe843783          	ld	a5,-24(s0)
    5020270c:	00078023          	sb	zero,0(a5)
    50202710:	fe843703          	ld	a4,-24(s0)
    50202714:	fb043783          	ld	a5,-80(s0)
    50202718:	40f707b3          	sub	a5,a4,a5
    5020271c:	fcf42c23          	sw	a5,-40(s0)
    50202720:	fe042023          	sw	zero,-32(s0)
    50202724:	a885                	j	50202794 <mini_itoa+0x1ce>
    50202726:	fe046783          	lwu	a5,-32(s0)
    5020272a:	fb043703          	ld	a4,-80(s0)
    5020272e:	97ba                	add	a5,a5,a4
    50202730:	0007c783          	lbu	a5,0(a5)
    50202734:	fcf40ba3          	sb	a5,-41(s0)
    50202738:	fd842703          	lw	a4,-40(s0)
    5020273c:	fe042783          	lw	a5,-32(s0)
    50202740:	40f707bb          	subw	a5,a4,a5
    50202744:	2781                	sext.w	a5,a5
    50202746:	37fd                	addiw	a5,a5,-1
    50202748:	2781                	sext.w	a5,a5
    5020274a:	1782                	slli	a5,a5,0x20
    5020274c:	9381                	srli	a5,a5,0x20
    5020274e:	fb043703          	ld	a4,-80(s0)
    50202752:	973e                	add	a4,a4,a5
    50202754:	fe046783          	lwu	a5,-32(s0)
    50202758:	fb043683          	ld	a3,-80(s0)
    5020275c:	97b6                	add	a5,a5,a3
    5020275e:	00074703          	lbu	a4,0(a4)
    50202762:	00e78023          	sb	a4,0(a5)
    50202766:	fd842703          	lw	a4,-40(s0)
    5020276a:	fe042783          	lw	a5,-32(s0)
    5020276e:	40f707bb          	subw	a5,a4,a5
    50202772:	2781                	sext.w	a5,a5
    50202774:	37fd                	addiw	a5,a5,-1
    50202776:	2781                	sext.w	a5,a5
    50202778:	1782                	slli	a5,a5,0x20
    5020277a:	9381                	srli	a5,a5,0x20
    5020277c:	fb043703          	ld	a4,-80(s0)
    50202780:	97ba                	add	a5,a5,a4
    50202782:	fd744703          	lbu	a4,-41(s0)
    50202786:	00e78023          	sb	a4,0(a5)
    5020278a:	fe042783          	lw	a5,-32(s0)
    5020278e:	2785                	addiw	a5,a5,1
    50202790:	fef42023          	sw	a5,-32(s0)
    50202794:	fd842783          	lw	a5,-40(s0)
    50202798:	0017d79b          	srliw	a5,a5,0x1
    5020279c:	0007871b          	sext.w	a4,a5
    502027a0:	fe042783          	lw	a5,-32(s0)
    502027a4:	2781                	sext.w	a5,a5
    502027a6:	f8e7e0e3          	bltu	a5,a4,50202726 <mini_itoa+0x160>
    502027aa:	fd842783          	lw	a5,-40(s0)
    502027ae:	853e                	mv	a0,a5
    502027b0:	6426                	ld	s0,72(sp)
    502027b2:	6161                	addi	sp,sp,80
    502027b4:	8082                	ret

00000000502027b6 <_putc>:
    502027b6:	1101                	addi	sp,sp,-32
    502027b8:	ec22                	sd	s0,24(sp)
    502027ba:	1000                	addi	s0,sp,32
    502027bc:	87aa                	mv	a5,a0
    502027be:	feb43023          	sd	a1,-32(s0)
    502027c2:	fef42623          	sw	a5,-20(s0)
    502027c6:	fe043783          	ld	a5,-32(s0)
    502027ca:	6798                	ld	a4,8(a5)
    502027cc:	fe043783          	ld	a5,-32(s0)
    502027d0:	639c                	ld	a5,0(a5)
    502027d2:	40f707b3          	sub	a5,a4,a5
    502027d6:	2781                	sext.w	a5,a5
    502027d8:	2785                	addiw	a5,a5,1
    502027da:	0007871b          	sext.w	a4,a5
    502027de:	fe043783          	ld	a5,-32(s0)
    502027e2:	4b9c                	lw	a5,16(a5)
    502027e4:	00f76463          	bltu	a4,a5,502027ec <_putc+0x36>
    502027e8:	4781                	li	a5,0
    502027ea:	a02d                	j	50202814 <_putc+0x5e>
    502027ec:	fe043783          	ld	a5,-32(s0)
    502027f0:	679c                	ld	a5,8(a5)
    502027f2:	00178693          	addi	a3,a5,1
    502027f6:	fe043703          	ld	a4,-32(s0)
    502027fa:	e714                	sd	a3,8(a4)
    502027fc:	fec42703          	lw	a4,-20(s0)
    50202800:	0ff77713          	andi	a4,a4,255
    50202804:	00e78023          	sb	a4,0(a5)
    50202808:	fe043783          	ld	a5,-32(s0)
    5020280c:	679c                	ld	a5,8(a5)
    5020280e:	00078023          	sb	zero,0(a5)
    50202812:	4785                	li	a5,1
    50202814:	853e                	mv	a0,a5
    50202816:	6462                	ld	s0,24(sp)
    50202818:	6105                	addi	sp,sp,32
    5020281a:	8082                	ret

000000005020281c <_puts>:
    5020281c:	7139                	addi	sp,sp,-64
    5020281e:	fc22                	sd	s0,56(sp)
    50202820:	0080                	addi	s0,sp,64
    50202822:	fca43c23          	sd	a0,-40(s0)
    50202826:	87ae                	mv	a5,a1
    50202828:	fcc43423          	sd	a2,-56(s0)
    5020282c:	fcf42a23          	sw	a5,-44(s0)
    50202830:	fc843783          	ld	a5,-56(s0)
    50202834:	4b9c                	lw	a5,16(a5)
    50202836:	02079713          	slli	a4,a5,0x20
    5020283a:	9301                	srli	a4,a4,0x20
    5020283c:	fc843783          	ld	a5,-56(s0)
    50202840:	6794                	ld	a3,8(a5)
    50202842:	fc843783          	ld	a5,-56(s0)
    50202846:	639c                	ld	a5,0(a5)
    50202848:	40f687b3          	sub	a5,a3,a5
    5020284c:	8f1d                	sub	a4,a4,a5
    5020284e:	fd446783          	lwu	a5,-44(s0)
    50202852:	02e7c463          	blt	a5,a4,5020287a <_puts+0x5e>
    50202856:	fc843783          	ld	a5,-56(s0)
    5020285a:	4b98                	lw	a4,16(a5)
    5020285c:	fc843783          	ld	a5,-56(s0)
    50202860:	6794                	ld	a3,8(a5)
    50202862:	fc843783          	ld	a5,-56(s0)
    50202866:	639c                	ld	a5,0(a5)
    50202868:	40f687b3          	sub	a5,a3,a5
    5020286c:	2781                	sext.w	a5,a5
    5020286e:	40f707bb          	subw	a5,a4,a5
    50202872:	2781                	sext.w	a5,a5
    50202874:	37fd                	addiw	a5,a5,-1
    50202876:	fcf42a23          	sw	a5,-44(s0)
    5020287a:	fe042623          	sw	zero,-20(s0)
    5020287e:	a03d                	j	502028ac <_puts+0x90>
    50202880:	fec46783          	lwu	a5,-20(s0)
    50202884:	fd843703          	ld	a4,-40(s0)
    50202888:	973e                	add	a4,a4,a5
    5020288a:	fc843783          	ld	a5,-56(s0)
    5020288e:	679c                	ld	a5,8(a5)
    50202890:	00178613          	addi	a2,a5,1
    50202894:	fc843683          	ld	a3,-56(s0)
    50202898:	e690                	sd	a2,8(a3)
    5020289a:	00074703          	lbu	a4,0(a4)
    5020289e:	00e78023          	sb	a4,0(a5)
    502028a2:	fec42783          	lw	a5,-20(s0)
    502028a6:	2785                	addiw	a5,a5,1
    502028a8:	fef42623          	sw	a5,-20(s0)
    502028ac:	fec42703          	lw	a4,-20(s0)
    502028b0:	fd442783          	lw	a5,-44(s0)
    502028b4:	2701                	sext.w	a4,a4
    502028b6:	2781                	sext.w	a5,a5
    502028b8:	fcf764e3          	bltu	a4,a5,50202880 <_puts+0x64>
    502028bc:	fc843783          	ld	a5,-56(s0)
    502028c0:	679c                	ld	a5,8(a5)
    502028c2:	00078023          	sb	zero,0(a5)
    502028c6:	fd442783          	lw	a5,-44(s0)
    502028ca:	853e                	mv	a0,a5
    502028cc:	7462                	ld	s0,56(sp)
    502028ce:	6121                	addi	sp,sp,64
    502028d0:	8082                	ret

00000000502028d2 <mini_vsnprintf>:
    502028d2:	7119                	addi	sp,sp,-128
    502028d4:	fc86                	sd	ra,120(sp)
    502028d6:	f8a2                	sd	s0,112(sp)
    502028d8:	0100                	addi	s0,sp,128
    502028da:	f8a43c23          	sd	a0,-104(s0)
    502028de:	87ae                	mv	a5,a1
    502028e0:	f8c43423          	sd	a2,-120(s0)
    502028e4:	f8d43023          	sd	a3,-128(s0)
    502028e8:	f8f42a23          	sw	a5,-108(s0)
    502028ec:	f9843783          	ld	a5,-104(s0)
    502028f0:	fcf43023          	sd	a5,-64(s0)
    502028f4:	f9843783          	ld	a5,-104(s0)
    502028f8:	fcf43423          	sd	a5,-56(s0)
    502028fc:	f9442783          	lw	a5,-108(s0)
    50202900:	fcf42823          	sw	a5,-48(s0)
    50202904:	a4f9                	j	50202bd2 <mini_vsnprintf+0x300>
    50202906:	fc843703          	ld	a4,-56(s0)
    5020290a:	fc043783          	ld	a5,-64(s0)
    5020290e:	40f707b3          	sub	a5,a4,a5
    50202912:	2781                	sext.w	a5,a5
    50202914:	2785                	addiw	a5,a5,1
    50202916:	0007871b          	sext.w	a4,a5
    5020291a:	fd042783          	lw	a5,-48(s0)
    5020291e:	2cf77b63          	bgeu	a4,a5,50202bf4 <mini_vsnprintf+0x322>
    50202922:	fef44783          	lbu	a5,-17(s0)
    50202926:	0ff7f713          	andi	a4,a5,255
    5020292a:	02500793          	li	a5,37
    5020292e:	00f70c63          	beq	a4,a5,50202946 <mini_vsnprintf+0x74>
    50202932:	fef44783          	lbu	a5,-17(s0)
    50202936:	2781                	sext.w	a5,a5
    50202938:	fc040713          	addi	a4,s0,-64
    5020293c:	85ba                	mv	a1,a4
    5020293e:	853e                	mv	a0,a5
    50202940:	e77ff0ef          	jal	ra,502027b6 <_putc>
    50202944:	a479                	j	50202bd2 <mini_vsnprintf+0x300>
    50202946:	fe040723          	sb	zero,-18(s0)
    5020294a:	fe042423          	sw	zero,-24(s0)
    5020294e:	f8843783          	ld	a5,-120(s0)
    50202952:	00178713          	addi	a4,a5,1
    50202956:	f8e43423          	sd	a4,-120(s0)
    5020295a:	0007c783          	lbu	a5,0(a5)
    5020295e:	fef407a3          	sb	a5,-17(s0)
    50202962:	fef44783          	lbu	a5,-17(s0)
    50202966:	0ff7f713          	andi	a4,a5,255
    5020296a:	03000793          	li	a5,48
    5020296e:	06f71b63          	bne	a4,a5,502029e4 <mini_vsnprintf+0x112>
    50202972:	a891                	j	502029c6 <mini_vsnprintf+0xf4>
    50202974:	fef44783          	lbu	a5,-17(s0)
    50202978:	0ff7f793          	andi	a5,a5,255
    5020297c:	26078e63          	beqz	a5,50202bf8 <mini_vsnprintf+0x326>
    50202980:	fef44783          	lbu	a5,-17(s0)
    50202984:	0ff7f713          	andi	a4,a5,255
    50202988:	02f00793          	li	a5,47
    5020298c:	04e7fc63          	bgeu	a5,a4,502029e4 <mini_vsnprintf+0x112>
    50202990:	fef44783          	lbu	a5,-17(s0)
    50202994:	0ff7f713          	andi	a4,a5,255
    50202998:	03900793          	li	a5,57
    5020299c:	04e7e463          	bltu	a5,a4,502029e4 <mini_vsnprintf+0x112>
    502029a0:	fee44703          	lbu	a4,-18(s0)
    502029a4:	87ba                	mv	a5,a4
    502029a6:	0027979b          	slliw	a5,a5,0x2
    502029aa:	9fb9                	addw	a5,a5,a4
    502029ac:	0017979b          	slliw	a5,a5,0x1
    502029b0:	0ff7f793          	andi	a5,a5,255
    502029b4:	fef44703          	lbu	a4,-17(s0)
    502029b8:	9fb9                	addw	a5,a5,a4
    502029ba:	0ff7f793          	andi	a5,a5,255
    502029be:	fd07879b          	addiw	a5,a5,-48
    502029c2:	fef40723          	sb	a5,-18(s0)
    502029c6:	f8843783          	ld	a5,-120(s0)
    502029ca:	00178713          	addi	a4,a5,1
    502029ce:	f8e43423          	sd	a4,-120(s0)
    502029d2:	0007c783          	lbu	a5,0(a5)
    502029d6:	fef407a3          	sb	a5,-17(s0)
    502029da:	fef44783          	lbu	a5,-17(s0)
    502029de:	0ff7f793          	andi	a5,a5,255
    502029e2:	fbc9                	bnez	a5,50202974 <mini_vsnprintf+0xa2>
    502029e4:	fef44783          	lbu	a5,-17(s0)
    502029e8:	0ff7f713          	andi	a4,a5,255
    502029ec:	06c00793          	li	a5,108
    502029f0:	00f71f63          	bne	a4,a5,50202a0e <mini_vsnprintf+0x13c>
    502029f4:	4785                	li	a5,1
    502029f6:	fef42423          	sw	a5,-24(s0)
    502029fa:	f8843783          	ld	a5,-120(s0)
    502029fe:	00178713          	addi	a4,a5,1
    50202a02:	f8e43423          	sd	a4,-120(s0)
    50202a06:	0007c783          	lbu	a5,0(a5)
    50202a0a:	fef407a3          	sb	a5,-17(s0)
    50202a0e:	fef44783          	lbu	a5,-17(s0)
    50202a12:	2781                	sext.w	a5,a5
    50202a14:	1e078463          	beqz	a5,50202bfc <mini_vsnprintf+0x32a>
    50202a18:	873e                	mv	a4,a5
    50202a1a:	1a074263          	bltz	a4,50202bbe <mini_vsnprintf+0x2ec>
    50202a1e:	86be                	mv	a3,a5
    50202a20:	07800713          	li	a4,120
    50202a24:	18d74d63          	blt	a4,a3,50202bbe <mini_vsnprintf+0x2ec>
    50202a28:	86be                	mv	a3,a5
    50202a2a:	05800713          	li	a4,88
    50202a2e:	18e6c863          	blt	a3,a4,50202bbe <mini_vsnprintf+0x2ec>
    50202a32:	fa87869b          	addiw	a3,a5,-88
    50202a36:	0006871b          	sext.w	a4,a3
    50202a3a:	02000793          	li	a5,32
    50202a3e:	18e7e063          	bltu	a5,a4,50202bbe <mini_vsnprintf+0x2ec>
    50202a42:	02069793          	slli	a5,a3,0x20
    50202a46:	9381                	srli	a5,a5,0x20
    50202a48:	00279713          	slli	a4,a5,0x2
    50202a4c:	00001797          	auipc	a5,0x1
    50202a50:	1c478793          	addi	a5,a5,452 # 50203c10 <__FUNCTION__.1316+0x90>
    50202a54:	97ba                	add	a5,a5,a4
    50202a56:	439c                	lw	a5,0(a5)
    50202a58:	0007871b          	sext.w	a4,a5
    50202a5c:	00001797          	auipc	a5,0x1
    50202a60:	1b478793          	addi	a5,a5,436 # 50203c10 <__FUNCTION__.1316+0x90>
    50202a64:	97ba                	add	a5,a5,a4
    50202a66:	8782                	jr	a5
    50202a68:	4785                	li	a5,1
    50202a6a:	fef42423          	sw	a5,-24(s0)
    50202a6e:	a295                	j	50202bd2 <mini_vsnprintf+0x300>
    50202a70:	fe842783          	lw	a5,-24(s0)
    50202a74:	2781                	sext.w	a5,a5
    50202a76:	ef81                	bnez	a5,50202a8e <mini_vsnprintf+0x1bc>
    50202a78:	f8043783          	ld	a5,-128(s0)
    50202a7c:	00878713          	addi	a4,a5,8
    50202a80:	f8e43023          	sd	a4,-128(s0)
    50202a84:	439c                	lw	a5,0(a5)
    50202a86:	02079513          	slli	a0,a5,0x20
    50202a8a:	9101                	srli	a0,a0,0x20
    50202a8c:	a809                	j	50202a9e <mini_vsnprintf+0x1cc>
    50202a8e:	f8043783          	ld	a5,-128(s0)
    50202a92:	00878713          	addi	a4,a5,8
    50202a96:	f8e43023          	sd	a4,-128(s0)
    50202a9a:	639c                	ld	a5,0(a5)
    50202a9c:	853e                	mv	a0,a5
    50202a9e:	fef44783          	lbu	a5,-17(s0)
    50202aa2:	0007871b          	sext.w	a4,a5
    50202aa6:	07500793          	li	a5,117
    50202aaa:	40f707b3          	sub	a5,a4,a5
    50202aae:	0017b793          	seqz	a5,a5
    50202ab2:	0ff7f793          	andi	a5,a5,255
    50202ab6:	0007869b          	sext.w	a3,a5
    50202aba:	fee44783          	lbu	a5,-18(s0)
    50202abe:	2781                	sext.w	a5,a5
    50202ac0:	fa840713          	addi	a4,s0,-88
    50202ac4:	4601                	li	a2,0
    50202ac6:	45a9                	li	a1,10
    50202ac8:	affff0ef          	jal	ra,502025c6 <mini_itoa>
    50202acc:	87aa                	mv	a5,a0
    50202ace:	fcf42e23          	sw	a5,-36(s0)
    50202ad2:	fc040693          	addi	a3,s0,-64
    50202ad6:	fdc42703          	lw	a4,-36(s0)
    50202ada:	fa840793          	addi	a5,s0,-88
    50202ade:	8636                	mv	a2,a3
    50202ae0:	85ba                	mv	a1,a4
    50202ae2:	853e                	mv	a0,a5
    50202ae4:	d39ff0ef          	jal	ra,5020281c <_puts>
    50202ae8:	fe042423          	sw	zero,-24(s0)
    50202aec:	a0dd                	j	50202bd2 <mini_vsnprintf+0x300>
    50202aee:	fe842783          	lw	a5,-24(s0)
    50202af2:	2781                	sext.w	a5,a5
    50202af4:	ef81                	bnez	a5,50202b0c <mini_vsnprintf+0x23a>
    50202af6:	f8043783          	ld	a5,-128(s0)
    50202afa:	00878713          	addi	a4,a5,8
    50202afe:	f8e43023          	sd	a4,-128(s0)
    50202b02:	439c                	lw	a5,0(a5)
    50202b04:	02079513          	slli	a0,a5,0x20
    50202b08:	9101                	srli	a0,a0,0x20
    50202b0a:	a809                	j	50202b1c <mini_vsnprintf+0x24a>
    50202b0c:	f8043783          	ld	a5,-128(s0)
    50202b10:	00878713          	addi	a4,a5,8
    50202b14:	f8e43023          	sd	a4,-128(s0)
    50202b18:	639c                	ld	a5,0(a5)
    50202b1a:	853e                	mv	a0,a5
    50202b1c:	fef44783          	lbu	a5,-17(s0)
    50202b20:	0007871b          	sext.w	a4,a5
    50202b24:	05800793          	li	a5,88
    50202b28:	40f707b3          	sub	a5,a4,a5
    50202b2c:	0017b793          	seqz	a5,a5
    50202b30:	0ff7f793          	andi	a5,a5,255
    50202b34:	0007861b          	sext.w	a2,a5
    50202b38:	fee44783          	lbu	a5,-18(s0)
    50202b3c:	2781                	sext.w	a5,a5
    50202b3e:	fa840713          	addi	a4,s0,-88
    50202b42:	4685                	li	a3,1
    50202b44:	45c1                	li	a1,16
    50202b46:	a81ff0ef          	jal	ra,502025c6 <mini_itoa>
    50202b4a:	87aa                	mv	a5,a0
    50202b4c:	fcf42e23          	sw	a5,-36(s0)
    50202b50:	fc040693          	addi	a3,s0,-64
    50202b54:	fdc42703          	lw	a4,-36(s0)
    50202b58:	fa840793          	addi	a5,s0,-88
    50202b5c:	8636                	mv	a2,a3
    50202b5e:	85ba                	mv	a1,a4
    50202b60:	853e                	mv	a0,a5
    50202b62:	cbbff0ef          	jal	ra,5020281c <_puts>
    50202b66:	fe042423          	sw	zero,-24(s0)
    50202b6a:	a0a5                	j	50202bd2 <mini_vsnprintf+0x300>
    50202b6c:	f8043783          	ld	a5,-128(s0)
    50202b70:	00878713          	addi	a4,a5,8
    50202b74:	f8e43023          	sd	a4,-128(s0)
    50202b78:	439c                	lw	a5,0(a5)
    50202b7a:	0ff7f793          	andi	a5,a5,255
    50202b7e:	2781                	sext.w	a5,a5
    50202b80:	fc040713          	addi	a4,s0,-64
    50202b84:	85ba                	mv	a1,a4
    50202b86:	853e                	mv	a0,a5
    50202b88:	c2fff0ef          	jal	ra,502027b6 <_putc>
    50202b8c:	a099                	j	50202bd2 <mini_vsnprintf+0x300>
    50202b8e:	f8043783          	ld	a5,-128(s0)
    50202b92:	00878713          	addi	a4,a5,8
    50202b96:	f8e43023          	sd	a4,-128(s0)
    50202b9a:	639c                	ld	a5,0(a5)
    50202b9c:	fef43023          	sd	a5,-32(s0)
    50202ba0:	fe043503          	ld	a0,-32(s0)
    50202ba4:	126000ef          	jal	ra,50202cca <strlen>
    50202ba8:	87aa                	mv	a5,a0
    50202baa:	2781                	sext.w	a5,a5
    50202bac:	fc040713          	addi	a4,s0,-64
    50202bb0:	863a                	mv	a2,a4
    50202bb2:	85be                	mv	a1,a5
    50202bb4:	fe043503          	ld	a0,-32(s0)
    50202bb8:	c65ff0ef          	jal	ra,5020281c <_puts>
    50202bbc:	a819                	j	50202bd2 <mini_vsnprintf+0x300>
    50202bbe:	fef44783          	lbu	a5,-17(s0)
    50202bc2:	2781                	sext.w	a5,a5
    50202bc4:	fc040713          	addi	a4,s0,-64
    50202bc8:	85ba                	mv	a1,a4
    50202bca:	853e                	mv	a0,a5
    50202bcc:	bebff0ef          	jal	ra,502027b6 <_putc>
    50202bd0:	0001                	nop
    50202bd2:	f8843783          	ld	a5,-120(s0)
    50202bd6:	00178713          	addi	a4,a5,1
    50202bda:	f8e43423          	sd	a4,-120(s0)
    50202bde:	0007c783          	lbu	a5,0(a5)
    50202be2:	fef407a3          	sb	a5,-17(s0)
    50202be6:	fef44783          	lbu	a5,-17(s0)
    50202bea:	0ff7f793          	andi	a5,a5,255
    50202bee:	d0079ce3          	bnez	a5,50202906 <mini_vsnprintf+0x34>
    50202bf2:	a031                	j	50202bfe <mini_vsnprintf+0x32c>
    50202bf4:	0001                	nop
    50202bf6:	a021                	j	50202bfe <mini_vsnprintf+0x32c>
    50202bf8:	0001                	nop
    50202bfa:	a011                	j	50202bfe <mini_vsnprintf+0x32c>
    50202bfc:	0001                	nop
    50202bfe:	fc843703          	ld	a4,-56(s0)
    50202c02:	fc043783          	ld	a5,-64(s0)
    50202c06:	40f707b3          	sub	a5,a4,a5
    50202c0a:	2781                	sext.w	a5,a5
    50202c0c:	853e                	mv	a0,a5
    50202c0e:	70e6                	ld	ra,120(sp)
    50202c10:	7446                	ld	s0,112(sp)
    50202c12:	6109                	addi	sp,sp,128
    50202c14:	8082                	ret

0000000050202c16 <vprintf>:
    50202c16:	7169                	addi	sp,sp,-304
    50202c18:	f606                	sd	ra,296(sp)
    50202c1a:	f222                	sd	s0,288(sp)
    50202c1c:	1a00                	addi	s0,sp,304
    50202c1e:	eca43c23          	sd	a0,-296(s0)
    50202c22:	ecb43823          	sd	a1,-304(s0)
    50202c26:	ed043783          	ld	a5,-304(s0)
    50202c2a:	fef43023          	sd	a5,-32(s0)
    50202c2e:	fe043703          	ld	a4,-32(s0)
    50202c32:	ee040793          	addi	a5,s0,-288
    50202c36:	86ba                	mv	a3,a4
    50202c38:	ed843603          	ld	a2,-296(s0)
    50202c3c:	10000593          	li	a1,256
    50202c40:	853e                	mv	a0,a5
    50202c42:	c91ff0ef          	jal	ra,502028d2 <mini_vsnprintf>
    50202c46:	87aa                	mv	a5,a0
    50202c48:	fef42623          	sw	a5,-20(s0)
    50202c4c:	fec42783          	lw	a5,-20(s0)
    50202c50:	ff040713          	addi	a4,s0,-16
    50202c54:	97ba                	add	a5,a5,a4
    50202c56:	ee078823          	sb	zero,-272(a5)
    50202c5a:	ee040793          	addi	a5,s0,-288
    50202c5e:	853e                	mv	a0,a5
    50202c60:	356000ef          	jal	ra,50202fb6 <sys_write>
    50202c64:	fec42783          	lw	a5,-20(s0)
    50202c68:	853e                	mv	a0,a5
    50202c6a:	70b2                	ld	ra,296(sp)
    50202c6c:	7412                	ld	s0,288(sp)
    50202c6e:	6155                	addi	sp,sp,304
    50202c70:	8082                	ret

0000000050202c72 <printf>:
    50202c72:	7159                	addi	sp,sp,-112
    50202c74:	f406                	sd	ra,40(sp)
    50202c76:	f022                	sd	s0,32(sp)
    50202c78:	1800                	addi	s0,sp,48
    50202c7a:	fca43c23          	sd	a0,-40(s0)
    50202c7e:	e40c                	sd	a1,8(s0)
    50202c80:	e810                	sd	a2,16(s0)
    50202c82:	ec14                	sd	a3,24(s0)
    50202c84:	f018                	sd	a4,32(s0)
    50202c86:	f41c                	sd	a5,40(s0)
    50202c88:	03043823          	sd	a6,48(s0)
    50202c8c:	03143c23          	sd	a7,56(s0)
    50202c90:	fe042623          	sw	zero,-20(s0)
    50202c94:	04040793          	addi	a5,s0,64
    50202c98:	fcf43823          	sd	a5,-48(s0)
    50202c9c:	fd043783          	ld	a5,-48(s0)
    50202ca0:	fc878793          	addi	a5,a5,-56
    50202ca4:	fef43023          	sd	a5,-32(s0)
    50202ca8:	fe043783          	ld	a5,-32(s0)
    50202cac:	85be                	mv	a1,a5
    50202cae:	fd843503          	ld	a0,-40(s0)
    50202cb2:	f65ff0ef          	jal	ra,50202c16 <vprintf>
    50202cb6:	87aa                	mv	a5,a0
    50202cb8:	fef42623          	sw	a5,-20(s0)
    50202cbc:	fec42783          	lw	a5,-20(s0)
    50202cc0:	853e                	mv	a0,a5
    50202cc2:	70a2                	ld	ra,40(sp)
    50202cc4:	7402                	ld	s0,32(sp)
    50202cc6:	6165                	addi	sp,sp,112
    50202cc8:	8082                	ret

0000000050202cca <strlen>:
    50202cca:	7179                	addi	sp,sp,-48
    50202ccc:	f422                	sd	s0,40(sp)
    50202cce:	1800                	addi	s0,sp,48
    50202cd0:	fca43c23          	sd	a0,-40(s0)
    50202cd4:	fe042623          	sw	zero,-20(s0)
    50202cd8:	a031                	j	50202ce4 <strlen+0x1a>
    50202cda:	fec42783          	lw	a5,-20(s0)
    50202cde:	2785                	addiw	a5,a5,1
    50202ce0:	fef42623          	sw	a5,-20(s0)
    50202ce4:	fec42783          	lw	a5,-20(s0)
    50202ce8:	fd843703          	ld	a4,-40(s0)
    50202cec:	97ba                	add	a5,a5,a4
    50202cee:	0007c783          	lbu	a5,0(a5)
    50202cf2:	f7e5                	bnez	a5,50202cda <strlen+0x10>
    50202cf4:	fec42783          	lw	a5,-20(s0)
    50202cf8:	853e                	mv	a0,a5
    50202cfa:	7422                	ld	s0,40(sp)
    50202cfc:	6145                	addi	sp,sp,48
    50202cfe:	8082                	ret

0000000050202d00 <memcpy>:
    50202d00:	7179                	addi	sp,sp,-48
    50202d02:	f422                	sd	s0,40(sp)
    50202d04:	1800                	addi	s0,sp,48
    50202d06:	fea43423          	sd	a0,-24(s0)
    50202d0a:	feb43023          	sd	a1,-32(s0)
    50202d0e:	87b2                	mv	a5,a2
    50202d10:	fcf42e23          	sw	a5,-36(s0)
    50202d14:	a035                	j	50202d40 <memcpy+0x40>
    50202d16:	fe043703          	ld	a4,-32(s0)
    50202d1a:	00170793          	addi	a5,a4,1
    50202d1e:	fef43023          	sd	a5,-32(s0)
    50202d22:	fe843783          	ld	a5,-24(s0)
    50202d26:	00178693          	addi	a3,a5,1
    50202d2a:	fed43423          	sd	a3,-24(s0)
    50202d2e:	00074703          	lbu	a4,0(a4)
    50202d32:	00e78023          	sb	a4,0(a5)
    50202d36:	fdc42783          	lw	a5,-36(s0)
    50202d3a:	37fd                	addiw	a5,a5,-1
    50202d3c:	fcf42e23          	sw	a5,-36(s0)
    50202d40:	fdc42783          	lw	a5,-36(s0)
    50202d44:	2781                	sext.w	a5,a5
    50202d46:	fbe1                	bnez	a5,50202d16 <memcpy+0x16>
    50202d48:	0001                	nop
    50202d4a:	0001                	nop
    50202d4c:	7422                	ld	s0,40(sp)
    50202d4e:	6145                	addi	sp,sp,48
    50202d50:	8082                	ret

0000000050202d52 <memset>:
    50202d52:	7179                	addi	sp,sp,-48
    50202d54:	f422                	sd	s0,40(sp)
    50202d56:	1800                	addi	s0,sp,48
    50202d58:	fca43c23          	sd	a0,-40(s0)
    50202d5c:	87ae                	mv	a5,a1
    50202d5e:	8732                	mv	a4,a2
    50202d60:	fcf40ba3          	sb	a5,-41(s0)
    50202d64:	87ba                	mv	a5,a4
    50202d66:	fcf42823          	sw	a5,-48(s0)
    50202d6a:	fd843783          	ld	a5,-40(s0)
    50202d6e:	fef43423          	sd	a5,-24(s0)
    50202d72:	a005                	j	50202d92 <memset+0x40>
    50202d74:	fe843783          	ld	a5,-24(s0)
    50202d78:	00178713          	addi	a4,a5,1
    50202d7c:	fee43423          	sd	a4,-24(s0)
    50202d80:	fd744703          	lbu	a4,-41(s0)
    50202d84:	00e78023          	sb	a4,0(a5)
    50202d88:	fd042783          	lw	a5,-48(s0)
    50202d8c:	37fd                	addiw	a5,a5,-1
    50202d8e:	fcf42823          	sw	a5,-48(s0)
    50202d92:	fd042783          	lw	a5,-48(s0)
    50202d96:	2781                	sext.w	a5,a5
    50202d98:	fff1                	bnez	a5,50202d74 <memset+0x22>
    50202d9a:	0001                	nop
    50202d9c:	0001                	nop
    50202d9e:	7422                	ld	s0,40(sp)
    50202da0:	6145                	addi	sp,sp,48
    50202da2:	8082                	ret

0000000050202da4 <bzero>:
    50202da4:	1101                	addi	sp,sp,-32
    50202da6:	ec06                	sd	ra,24(sp)
    50202da8:	e822                	sd	s0,16(sp)
    50202daa:	1000                	addi	s0,sp,32
    50202dac:	fea43423          	sd	a0,-24(s0)
    50202db0:	87ae                	mv	a5,a1
    50202db2:	fef42223          	sw	a5,-28(s0)
    50202db6:	fe442783          	lw	a5,-28(s0)
    50202dba:	863e                	mv	a2,a5
    50202dbc:	4581                	li	a1,0
    50202dbe:	fe843503          	ld	a0,-24(s0)
    50202dc2:	f91ff0ef          	jal	ra,50202d52 <memset>
    50202dc6:	0001                	nop
    50202dc8:	60e2                	ld	ra,24(sp)
    50202dca:	6442                	ld	s0,16(sp)
    50202dcc:	6105                	addi	sp,sp,32
    50202dce:	8082                	ret

0000000050202dd0 <strcmp>:
    50202dd0:	1101                	addi	sp,sp,-32
    50202dd2:	ec22                	sd	s0,24(sp)
    50202dd4:	1000                	addi	s0,sp,32
    50202dd6:	fea43423          	sd	a0,-24(s0)
    50202dda:	feb43023          	sd	a1,-32(s0)
    50202dde:	a0a1                	j	50202e26 <strcmp+0x56>
    50202de0:	fe843783          	ld	a5,-24(s0)
    50202de4:	0007c703          	lbu	a4,0(a5)
    50202de8:	fe043783          	ld	a5,-32(s0)
    50202dec:	0007c783          	lbu	a5,0(a5)
    50202df0:	02f70163          	beq	a4,a5,50202e12 <strcmp+0x42>
    50202df4:	fe843783          	ld	a5,-24(s0)
    50202df8:	0007c783          	lbu	a5,0(a5)
    50202dfc:	0007871b          	sext.w	a4,a5
    50202e00:	fe043783          	ld	a5,-32(s0)
    50202e04:	0007c783          	lbu	a5,0(a5)
    50202e08:	2781                	sext.w	a5,a5
    50202e0a:	40f707bb          	subw	a5,a4,a5
    50202e0e:	2781                	sext.w	a5,a5
    50202e10:	a099                	j	50202e56 <strcmp+0x86>
    50202e12:	fe843783          	ld	a5,-24(s0)
    50202e16:	0785                	addi	a5,a5,1
    50202e18:	fef43423          	sd	a5,-24(s0)
    50202e1c:	fe043783          	ld	a5,-32(s0)
    50202e20:	0785                	addi	a5,a5,1
    50202e22:	fef43023          	sd	a5,-32(s0)
    50202e26:	fe843783          	ld	a5,-24(s0)
    50202e2a:	0007c783          	lbu	a5,0(a5)
    50202e2e:	c791                	beqz	a5,50202e3a <strcmp+0x6a>
    50202e30:	fe043783          	ld	a5,-32(s0)
    50202e34:	0007c783          	lbu	a5,0(a5)
    50202e38:	f7c5                	bnez	a5,50202de0 <strcmp+0x10>
    50202e3a:	fe843783          	ld	a5,-24(s0)
    50202e3e:	0007c783          	lbu	a5,0(a5)
    50202e42:	0007871b          	sext.w	a4,a5
    50202e46:	fe043783          	ld	a5,-32(s0)
    50202e4a:	0007c783          	lbu	a5,0(a5)
    50202e4e:	2781                	sext.w	a5,a5
    50202e50:	40f707bb          	subw	a5,a4,a5
    50202e54:	2781                	sext.w	a5,a5
    50202e56:	853e                	mv	a0,a5
    50202e58:	6462                	ld	s0,24(sp)
    50202e5a:	6105                	addi	sp,sp,32
    50202e5c:	8082                	ret

0000000050202e5e <strcpy>:
    50202e5e:	7179                	addi	sp,sp,-48
    50202e60:	f422                	sd	s0,40(sp)
    50202e62:	1800                	addi	s0,sp,48
    50202e64:	fca43c23          	sd	a0,-40(s0)
    50202e68:	fcb43823          	sd	a1,-48(s0)
    50202e6c:	fd843783          	ld	a5,-40(s0)
    50202e70:	fef43423          	sd	a5,-24(s0)
    50202e74:	a00d                	j	50202e96 <strcpy+0x38>
    50202e76:	fd043703          	ld	a4,-48(s0)
    50202e7a:	00170793          	addi	a5,a4,1
    50202e7e:	fcf43823          	sd	a5,-48(s0)
    50202e82:	fd843783          	ld	a5,-40(s0)
    50202e86:	00178693          	addi	a3,a5,1
    50202e8a:	fcd43c23          	sd	a3,-40(s0)
    50202e8e:	00074703          	lbu	a4,0(a4)
    50202e92:	00e78023          	sb	a4,0(a5)
    50202e96:	fd043783          	ld	a5,-48(s0)
    50202e9a:	0007c783          	lbu	a5,0(a5)
    50202e9e:	ffe1                	bnez	a5,50202e76 <strcpy+0x18>
    50202ea0:	fd843783          	ld	a5,-40(s0)
    50202ea4:	00078023          	sb	zero,0(a5)
    50202ea8:	fe843783          	ld	a5,-24(s0)
    50202eac:	853e                	mv	a0,a5
    50202eae:	7422                	ld	s0,40(sp)
    50202eb0:	6145                	addi	sp,sp,48
    50202eb2:	8082                	ret

0000000050202eb4 <strcat>:
    50202eb4:	7179                	addi	sp,sp,-48
    50202eb6:	f422                	sd	s0,40(sp)
    50202eb8:	1800                	addi	s0,sp,48
    50202eba:	fca43c23          	sd	a0,-40(s0)
    50202ebe:	fcb43823          	sd	a1,-48(s0)
    50202ec2:	fd843783          	ld	a5,-40(s0)
    50202ec6:	fef43423          	sd	a5,-24(s0)
    50202eca:	a031                	j	50202ed6 <strcat+0x22>
    50202ecc:	fd843783          	ld	a5,-40(s0)
    50202ed0:	0785                	addi	a5,a5,1
    50202ed2:	fcf43c23          	sd	a5,-40(s0)
    50202ed6:	fd843783          	ld	a5,-40(s0)
    50202eda:	0007c783          	lbu	a5,0(a5)
    50202ede:	f7fd                	bnez	a5,50202ecc <strcat+0x18>
    50202ee0:	a00d                	j	50202f02 <strcat+0x4e>
    50202ee2:	fd043703          	ld	a4,-48(s0)
    50202ee6:	00170793          	addi	a5,a4,1
    50202eea:	fcf43823          	sd	a5,-48(s0)
    50202eee:	fd843783          	ld	a5,-40(s0)
    50202ef2:	00178693          	addi	a3,a5,1
    50202ef6:	fcd43c23          	sd	a3,-40(s0)
    50202efa:	00074703          	lbu	a4,0(a4)
    50202efe:	00e78023          	sb	a4,0(a5)
    50202f02:	fd043783          	ld	a5,-48(s0)
    50202f06:	0007c783          	lbu	a5,0(a5)
    50202f0a:	ffe1                	bnez	a5,50202ee2 <strcat+0x2e>
    50202f0c:	fd843783          	ld	a5,-40(s0)
    50202f10:	00078023          	sb	zero,0(a5)
    50202f14:	fe843783          	ld	a5,-24(s0)
    50202f18:	853e                	mv	a0,a5
    50202f1a:	7422                	ld	s0,40(sp)
    50202f1c:	6145                	addi	sp,sp,48
    50202f1e:	8082                	ret

0000000050202f20 <mthread_mutex_init>:
    50202f20:	1101                	addi	sp,sp,-32
    50202f22:	ec06                	sd	ra,24(sp)
    50202f24:	e822                	sd	s0,16(sp)
    50202f26:	1000                	addi	s0,sp,32
    50202f28:	fea43423          	sd	a0,-24(s0)
    50202f2c:	160000ef          	jal	ra,5020308c <sys_mutex_get>
    50202f30:	87aa                	mv	a5,a0
    50202f32:	873e                	mv	a4,a5
    50202f34:	fe843783          	ld	a5,-24(s0)
    50202f38:	c398                	sw	a4,0(a5)
    50202f3a:	0001                	nop
    50202f3c:	853e                	mv	a0,a5
    50202f3e:	60e2                	ld	ra,24(sp)
    50202f40:	6442                	ld	s0,16(sp)
    50202f42:	6105                	addi	sp,sp,32
    50202f44:	8082                	ret

0000000050202f46 <mthread_mutex_lock>:
    50202f46:	1101                	addi	sp,sp,-32
    50202f48:	ec06                	sd	ra,24(sp)
    50202f4a:	e822                	sd	s0,16(sp)
    50202f4c:	1000                	addi	s0,sp,32
    50202f4e:	fea43423          	sd	a0,-24(s0)
    50202f52:	fe843783          	ld	a5,-24(s0)
    50202f56:	439c                	lw	a5,0(a5)
    50202f58:	853e                	mv	a0,a5
    50202f5a:	154000ef          	jal	ra,502030ae <sys_mutex_lock>
    50202f5e:	87aa                	mv	a5,a0
    50202f60:	853e                	mv	a0,a5
    50202f62:	60e2                	ld	ra,24(sp)
    50202f64:	6442                	ld	s0,16(sp)
    50202f66:	6105                	addi	sp,sp,32
    50202f68:	8082                	ret

0000000050202f6a <mthread_mutex_unlock>:
    50202f6a:	1101                	addi	sp,sp,-32
    50202f6c:	ec06                	sd	ra,24(sp)
    50202f6e:	e822                	sd	s0,16(sp)
    50202f70:	1000                	addi	s0,sp,32
    50202f72:	fea43423          	sd	a0,-24(s0)
    50202f76:	fe843783          	ld	a5,-24(s0)
    50202f7a:	439c                	lw	a5,0(a5)
    50202f7c:	853e                	mv	a0,a5
    50202f7e:	15c000ef          	jal	ra,502030da <sys_mutex_unlock>
    50202f82:	87aa                	mv	a5,a0
    50202f84:	853e                	mv	a0,a5
    50202f86:	60e2                	ld	ra,24(sp)
    50202f88:	6442                	ld	s0,16(sp)
    50202f8a:	6105                	addi	sp,sp,32
    50202f8c:	8082                	ret

0000000050202f8e <sys_sleep>:
    50202f8e:	1101                	addi	sp,sp,-32
    50202f90:	ec06                	sd	ra,24(sp)
    50202f92:	e822                	sd	s0,16(sp)
    50202f94:	1000                	addi	s0,sp,32
    50202f96:	87aa                	mv	a5,a0
    50202f98:	fef42623          	sw	a5,-20(s0)
    50202f9c:	fec46783          	lwu	a5,-20(s0)
    50202fa0:	4681                	li	a3,0
    50202fa2:	4601                	li	a2,0
    50202fa4:	85be                	mv	a1,a5
    50202fa6:	4509                	li	a0,2
    50202fa8:	1ac000ef          	jal	ra,50203154 <invoke_syscall>
    50202fac:	0001                	nop
    50202fae:	60e2                	ld	ra,24(sp)
    50202fb0:	6442                	ld	s0,16(sp)
    50202fb2:	6105                	addi	sp,sp,32
    50202fb4:	8082                	ret

0000000050202fb6 <sys_write>:
    50202fb6:	1101                	addi	sp,sp,-32
    50202fb8:	ec06                	sd	ra,24(sp)
    50202fba:	e822                	sd	s0,16(sp)
    50202fbc:	1000                	addi	s0,sp,32
    50202fbe:	fea43423          	sd	a0,-24(s0)
    50202fc2:	fe843783          	ld	a5,-24(s0)
    50202fc6:	4681                	li	a3,0
    50202fc8:	4601                	li	a2,0
    50202fca:	85be                	mv	a1,a5
    50202fcc:	4551                	li	a0,20
    50202fce:	186000ef          	jal	ra,50203154 <invoke_syscall>
    50202fd2:	0001                	nop
    50202fd4:	60e2                	ld	ra,24(sp)
    50202fd6:	6442                	ld	s0,16(sp)
    50202fd8:	6105                	addi	sp,sp,32
    50202fda:	8082                	ret

0000000050202fdc <sys_reflush>:
    50202fdc:	1141                	addi	sp,sp,-16
    50202fde:	e406                	sd	ra,8(sp)
    50202fe0:	e022                	sd	s0,0(sp)
    50202fe2:	0800                	addi	s0,sp,16
    50202fe4:	4681                	li	a3,0
    50202fe6:	4601                	li	a2,0
    50202fe8:	4581                	li	a1,0
    50202fea:	455d                	li	a0,23
    50202fec:	168000ef          	jal	ra,50203154 <invoke_syscall>
    50202ff0:	0001                	nop
    50202ff2:	60a2                	ld	ra,8(sp)
    50202ff4:	6402                	ld	s0,0(sp)
    50202ff6:	0141                	addi	sp,sp,16
    50202ff8:	8082                	ret

0000000050202ffa <sys_move_cursor>:
    50202ffa:	1101                	addi	sp,sp,-32
    50202ffc:	ec06                	sd	ra,24(sp)
    50202ffe:	e822                	sd	s0,16(sp)
    50203000:	1000                	addi	s0,sp,32
    50203002:	87aa                	mv	a5,a0
    50203004:	872e                	mv	a4,a1
    50203006:	fef42623          	sw	a5,-20(s0)
    5020300a:	87ba                	mv	a5,a4
    5020300c:	fef42423          	sw	a5,-24(s0)
    50203010:	fec42783          	lw	a5,-20(s0)
    50203014:	fe842703          	lw	a4,-24(s0)
    50203018:	4681                	li	a3,0
    5020301a:	863a                	mv	a2,a4
    5020301c:	85be                	mv	a1,a5
    5020301e:	4559                	li	a0,22
    50203020:	134000ef          	jal	ra,50203154 <invoke_syscall>
    50203024:	0001                	nop
    50203026:	60e2                	ld	ra,24(sp)
    50203028:	6442                	ld	s0,16(sp)
    5020302a:	6105                	addi	sp,sp,32
    5020302c:	8082                	ret

000000005020302e <sys_get_timebase>:
    5020302e:	1141                	addi	sp,sp,-16
    50203030:	e406                	sd	ra,8(sp)
    50203032:	e022                	sd	s0,0(sp)
    50203034:	0800                	addi	s0,sp,16
    50203036:	4681                	li	a3,0
    50203038:	4601                	li	a2,0
    5020303a:	4581                	li	a1,0
    5020303c:	4579                	li	a0,30
    5020303e:	116000ef          	jal	ra,50203154 <invoke_syscall>
    50203042:	87aa                	mv	a5,a0
    50203044:	853e                	mv	a0,a5
    50203046:	60a2                	ld	ra,8(sp)
    50203048:	6402                	ld	s0,0(sp)
    5020304a:	0141                	addi	sp,sp,16
    5020304c:	8082                	ret

000000005020304e <sys_get_tick>:
    5020304e:	1141                	addi	sp,sp,-16
    50203050:	e406                	sd	ra,8(sp)
    50203052:	e022                	sd	s0,0(sp)
    50203054:	0800                	addi	s0,sp,16
    50203056:	4681                	li	a3,0
    50203058:	4601                	li	a2,0
    5020305a:	4581                	li	a1,0
    5020305c:	457d                	li	a0,31
    5020305e:	0f6000ef          	jal	ra,50203154 <invoke_syscall>
    50203062:	87aa                	mv	a5,a0
    50203064:	853e                	mv	a0,a5
    50203066:	60a2                	ld	ra,8(sp)
    50203068:	6402                	ld	s0,0(sp)
    5020306a:	0141                	addi	sp,sp,16
    5020306c:	8082                	ret

000000005020306e <sys_yield>:
    5020306e:	1141                	addi	sp,sp,-16
    50203070:	e406                	sd	ra,8(sp)
    50203072:	e022                	sd	s0,0(sp)
    50203074:	0800                	addi	s0,sp,16
    50203076:	4681                	li	a3,0
    50203078:	4601                	li	a2,0
    5020307a:	4581                	li	a1,0
    5020307c:	451d                	li	a0,7
    5020307e:	0d6000ef          	jal	ra,50203154 <invoke_syscall>
    50203082:	0001                	nop
    50203084:	60a2                	ld	ra,8(sp)
    50203086:	6402                	ld	s0,0(sp)
    50203088:	0141                	addi	sp,sp,16
    5020308a:	8082                	ret

000000005020308c <sys_mutex_get>:
    5020308c:	1141                	addi	sp,sp,-16
    5020308e:	e406                	sd	ra,8(sp)
    50203090:	e022                	sd	s0,0(sp)
    50203092:	0800                	addi	s0,sp,16
    50203094:	4681                	li	a3,0
    50203096:	4601                	li	a2,0
    50203098:	4581                	li	a1,0
    5020309a:	4565                	li	a0,25
    5020309c:	0b8000ef          	jal	ra,50203154 <invoke_syscall>
    502030a0:	87aa                	mv	a5,a0
    502030a2:	2781                	sext.w	a5,a5
    502030a4:	853e                	mv	a0,a5
    502030a6:	60a2                	ld	ra,8(sp)
    502030a8:	6402                	ld	s0,0(sp)
    502030aa:	0141                	addi	sp,sp,16
    502030ac:	8082                	ret

00000000502030ae <sys_mutex_lock>:
    502030ae:	1101                	addi	sp,sp,-32
    502030b0:	ec06                	sd	ra,24(sp)
    502030b2:	e822                	sd	s0,16(sp)
    502030b4:	1000                	addi	s0,sp,32
    502030b6:	87aa                	mv	a5,a0
    502030b8:	fef42623          	sw	a5,-20(s0)
    502030bc:	fec42783          	lw	a5,-20(s0)
    502030c0:	4681                	li	a3,0
    502030c2:	4601                	li	a2,0
    502030c4:	85be                	mv	a1,a5
    502030c6:	4569                	li	a0,26
    502030c8:	08c000ef          	jal	ra,50203154 <invoke_syscall>
    502030cc:	87aa                	mv	a5,a0
    502030ce:	2781                	sext.w	a5,a5
    502030d0:	853e                	mv	a0,a5
    502030d2:	60e2                	ld	ra,24(sp)
    502030d4:	6442                	ld	s0,16(sp)
    502030d6:	6105                	addi	sp,sp,32
    502030d8:	8082                	ret

00000000502030da <sys_mutex_unlock>:
    502030da:	1101                	addi	sp,sp,-32
    502030dc:	ec06                	sd	ra,24(sp)
    502030de:	e822                	sd	s0,16(sp)
    502030e0:	1000                	addi	s0,sp,32
    502030e2:	87aa                	mv	a5,a0
    502030e4:	fef42623          	sw	a5,-20(s0)
    502030e8:	fec42783          	lw	a5,-20(s0)
    502030ec:	4681                	li	a3,0
    502030ee:	4601                	li	a2,0
    502030f0:	85be                	mv	a1,a5
    502030f2:	456d                	li	a0,27
    502030f4:	060000ef          	jal	ra,50203154 <invoke_syscall>
    502030f8:	87aa                	mv	a5,a0
    502030fa:	2781                	sext.w	a5,a5
    502030fc:	853e                	mv	a0,a5
    502030fe:	60e2                	ld	ra,24(sp)
    50203100:	6442                	ld	s0,16(sp)
    50203102:	6105                	addi	sp,sp,32
    50203104:	8082                	ret

0000000050203106 <sys_read>:
    50203106:	1141                	addi	sp,sp,-16
    50203108:	e406                	sd	ra,8(sp)
    5020310a:	e022                	sd	s0,0(sp)
    5020310c:	0800                	addi	s0,sp,16
    5020310e:	4681                	li	a3,0
    50203110:	4601                	li	a2,0
    50203112:	4581                	li	a1,0
    50203114:	4555                	li	a0,21
    50203116:	03e000ef          	jal	ra,50203154 <invoke_syscall>
    5020311a:	87aa                	mv	a5,a0
    5020311c:	0ff7f793          	andi	a5,a5,255
    50203120:	853e                	mv	a0,a5
    50203122:	60a2                	ld	ra,8(sp)
    50203124:	6402                	ld	s0,0(sp)
    50203126:	0141                	addi	sp,sp,16
    50203128:	8082                	ret

000000005020312a <sys_priority>:
    5020312a:	1101                	addi	sp,sp,-32
    5020312c:	ec06                	sd	ra,24(sp)
    5020312e:	e822                	sd	s0,16(sp)
    50203130:	1000                	addi	s0,sp,32
    50203132:	87aa                	mv	a5,a0
    50203134:	fef42623          	sw	a5,-20(s0)
    50203138:	fec46783          	lwu	a5,-20(s0)
    5020313c:	4681                	li	a3,0
    5020313e:	4601                	li	a2,0
    50203140:	85be                	mv	a1,a5
    50203142:	02400513          	li	a0,36
    50203146:	00e000ef          	jal	ra,50203154 <invoke_syscall>
    5020314a:	0001                	nop
    5020314c:	60e2                	ld	ra,24(sp)
    5020314e:	6442                	ld	s0,16(sp)
    50203150:	6105                	addi	sp,sp,32
    50203152:	8082                	ret

0000000050203154 <invoke_syscall>:
    50203154:	88aa                	mv	a7,a0
    50203156:	852e                	mv	a0,a1
    50203158:	85b2                	mv	a1,a2
    5020315a:	8636                	mv	a2,a3
    5020315c:	00000073          	ecall
    50203160:	8082                	ret
    50203162:	0001                	nop

0000000050203164 <sys_fork>:
    50203164:	4501                	li	a0,0
    50203166:	4581                	li	a1,0
    50203168:	4601                	li	a2,0
    5020316a:	02300893          	li	a7,35
    5020316e:	00000073          	ecall
    50203172:	8082                	ret
	...

0000000050203176 <clock>:
    50203176:	1141                	addi	sp,sp,-16
    50203178:	e406                	sd	ra,8(sp)
    5020317a:	e022                	sd	s0,0(sp)
    5020317c:	0800                	addi	s0,sp,16
    5020317e:	ed1ff0ef          	jal	ra,5020304e <sys_get_tick>
    50203182:	87aa                	mv	a5,a0
    50203184:	853e                	mv	a0,a5
    50203186:	60a2                	ld	ra,8(sp)
    50203188:	6402                	ld	s0,0(sp)
    5020318a:	0141                	addi	sp,sp,16
    5020318c:	8082                	ret

000000005020318e <print_task1>:
    5020318e:	1101                	addi	sp,sp,-32
    50203190:	ec06                	sd	ra,24(sp)
    50203192:	e822                	sd	s0,16(sp)
    50203194:	1000                	addi	s0,sp,32
    50203196:	4795                	li	a5,5
    50203198:	fef42423          	sw	a5,-24(s0)
    5020319c:	fe042623          	sw	zero,-20(s0)
    502031a0:	fe842783          	lw	a5,-24(s0)
    502031a4:	85be                	mv	a1,a5
    502031a6:	4505                	li	a0,1
    502031a8:	e53ff0ef          	jal	ra,50202ffa <sys_move_cursor>
    502031ac:	fec42783          	lw	a5,-20(s0)
    502031b0:	85be                	mv	a1,a5
    502031b2:	00001517          	auipc	a0,0x1
    502031b6:	ae650513          	addi	a0,a0,-1306 # 50203c98 <__FUNCTION__.1316+0x118>
    502031ba:	ab9ff0ef          	jal	ra,50202c72 <printf>
    502031be:	fec42783          	lw	a5,-20(s0)
    502031c2:	2785                	addiw	a5,a5,1
    502031c4:	fef42623          	sw	a5,-20(s0)
    502031c8:	bfe1                	j	502031a0 <print_task1+0x12>

00000000502031ca <print_task2>:
    502031ca:	1101                	addi	sp,sp,-32
    502031cc:	ec06                	sd	ra,24(sp)
    502031ce:	e822                	sd	s0,16(sp)
    502031d0:	1000                	addi	s0,sp,32
    502031d2:	4799                	li	a5,6
    502031d4:	fef42423          	sw	a5,-24(s0)
    502031d8:	fe042623          	sw	zero,-20(s0)
    502031dc:	fe842783          	lw	a5,-24(s0)
    502031e0:	85be                	mv	a1,a5
    502031e2:	4505                	li	a0,1
    502031e4:	e17ff0ef          	jal	ra,50202ffa <sys_move_cursor>
    502031e8:	fec42783          	lw	a5,-20(s0)
    502031ec:	85be                	mv	a1,a5
    502031ee:	00001517          	auipc	a0,0x1
    502031f2:	aaa50513          	addi	a0,a0,-1366 # 50203c98 <__FUNCTION__.1316+0x118>
    502031f6:	a7dff0ef          	jal	ra,50202c72 <printf>
    502031fa:	fec42783          	lw	a5,-20(s0)
    502031fe:	2785                	addiw	a5,a5,1
    50203200:	fef42623          	sw	a5,-20(s0)
    50203204:	bfe1                	j	502031dc <print_task2+0x12>

0000000050203206 <drawing_task>:
    50203206:	1101                	addi	sp,sp,-32
    50203208:	ec06                	sd	ra,24(sp)
    5020320a:	e822                	sd	s0,16(sp)
    5020320c:	1000                	addi	s0,sp,32
    5020320e:	47d9                	li	a5,22
    50203210:	fef42423          	sw	a5,-24(s0)
    50203214:	03700793          	li	a5,55
    50203218:	fef42623          	sw	a5,-20(s0)
    5020321c:	a07d                	j	502032ca <drawing_task+0xc4>
    5020321e:	fe842703          	lw	a4,-24(s0)
    50203222:	fec42783          	lw	a5,-20(s0)
    50203226:	85ba                	mv	a1,a4
    50203228:	853e                	mv	a0,a5
    5020322a:	dd1ff0ef          	jal	ra,50202ffa <sys_move_cursor>
    5020322e:	00001597          	auipc	a1,0x1
    50203232:	19258593          	addi	a1,a1,402 # 502043c0 <plane1>
    50203236:	00001517          	auipc	a0,0x1
    5020323a:	a9250513          	addi	a0,a0,-1390 # 50203cc8 <__FUNCTION__.1316+0x148>
    5020323e:	a35ff0ef          	jal	ra,50202c72 <printf>
    50203242:	fe842783          	lw	a5,-24(s0)
    50203246:	2785                	addiw	a5,a5,1
    50203248:	0007871b          	sext.w	a4,a5
    5020324c:	fec42783          	lw	a5,-20(s0)
    50203250:	85ba                	mv	a1,a4
    50203252:	853e                	mv	a0,a5
    50203254:	da7ff0ef          	jal	ra,50202ffa <sys_move_cursor>
    50203258:	00001597          	auipc	a1,0x1
    5020325c:	18058593          	addi	a1,a1,384 # 502043d8 <plane2>
    50203260:	00001517          	auipc	a0,0x1
    50203264:	a6850513          	addi	a0,a0,-1432 # 50203cc8 <__FUNCTION__.1316+0x148>
    50203268:	a0bff0ef          	jal	ra,50202c72 <printf>
    5020326c:	fe842783          	lw	a5,-24(s0)
    50203270:	2789                	addiw	a5,a5,2
    50203272:	0007871b          	sext.w	a4,a5
    50203276:	fec42783          	lw	a5,-20(s0)
    5020327a:	85ba                	mv	a1,a4
    5020327c:	853e                	mv	a0,a5
    5020327e:	d7dff0ef          	jal	ra,50202ffa <sys_move_cursor>
    50203282:	00001597          	auipc	a1,0x1
    50203286:	16e58593          	addi	a1,a1,366 # 502043f0 <plane3>
    5020328a:	00001517          	auipc	a0,0x1
    5020328e:	a3e50513          	addi	a0,a0,-1474 # 50203cc8 <__FUNCTION__.1316+0x148>
    50203292:	9e1ff0ef          	jal	ra,50202c72 <printf>
    50203296:	fe842783          	lw	a5,-24(s0)
    5020329a:	278d                	addiw	a5,a5,3
    5020329c:	0007871b          	sext.w	a4,a5
    502032a0:	fec42783          	lw	a5,-20(s0)
    502032a4:	85ba                	mv	a1,a4
    502032a6:	853e                	mv	a0,a5
    502032a8:	d53ff0ef          	jal	ra,50202ffa <sys_move_cursor>
    502032ac:	00001597          	auipc	a1,0x1
    502032b0:	15c58593          	addi	a1,a1,348 # 50204408 <plane4>
    502032b4:	00001517          	auipc	a0,0x1
    502032b8:	a1450513          	addi	a0,a0,-1516 # 50203cc8 <__FUNCTION__.1316+0x148>
    502032bc:	9b7ff0ef          	jal	ra,50202c72 <printf>
    502032c0:	fec42783          	lw	a5,-20(s0)
    502032c4:	37fd                	addiw	a5,a5,-1
    502032c6:	fef42623          	sw	a5,-20(s0)
    502032ca:	fec42783          	lw	a5,-20(s0)
    502032ce:	2781                	sext.w	a5,a5
    502032d0:	f4f047e3          	bgtz	a5,5020321e <drawing_task+0x18>
    502032d4:	fe842783          	lw	a5,-24(s0)
    502032d8:	85be                	mv	a1,a5
    502032da:	4505                	li	a0,1
    502032dc:	d1fff0ef          	jal	ra,50202ffa <sys_move_cursor>
    502032e0:	00001597          	auipc	a1,0x1
    502032e4:	0c858593          	addi	a1,a1,200 # 502043a8 <blank>
    502032e8:	00001517          	auipc	a0,0x1
    502032ec:	9e050513          	addi	a0,a0,-1568 # 50203cc8 <__FUNCTION__.1316+0x148>
    502032f0:	983ff0ef          	jal	ra,50202c72 <printf>
    502032f4:	fe842783          	lw	a5,-24(s0)
    502032f8:	2785                	addiw	a5,a5,1
    502032fa:	2781                	sext.w	a5,a5
    502032fc:	85be                	mv	a1,a5
    502032fe:	4505                	li	a0,1
    50203300:	cfbff0ef          	jal	ra,50202ffa <sys_move_cursor>
    50203304:	00001597          	auipc	a1,0x1
    50203308:	0a458593          	addi	a1,a1,164 # 502043a8 <blank>
    5020330c:	00001517          	auipc	a0,0x1
    50203310:	9bc50513          	addi	a0,a0,-1604 # 50203cc8 <__FUNCTION__.1316+0x148>
    50203314:	95fff0ef          	jal	ra,50202c72 <printf>
    50203318:	fe842783          	lw	a5,-24(s0)
    5020331c:	2789                	addiw	a5,a5,2
    5020331e:	2781                	sext.w	a5,a5
    50203320:	85be                	mv	a1,a5
    50203322:	4505                	li	a0,1
    50203324:	cd7ff0ef          	jal	ra,50202ffa <sys_move_cursor>
    50203328:	00001597          	auipc	a1,0x1
    5020332c:	08058593          	addi	a1,a1,128 # 502043a8 <blank>
    50203330:	00001517          	auipc	a0,0x1
    50203334:	99850513          	addi	a0,a0,-1640 # 50203cc8 <__FUNCTION__.1316+0x148>
    50203338:	93bff0ef          	jal	ra,50202c72 <printf>
    5020333c:	fe842783          	lw	a5,-24(s0)
    50203340:	278d                	addiw	a5,a5,3
    50203342:	2781                	sext.w	a5,a5
    50203344:	85be                	mv	a1,a5
    50203346:	4505                	li	a0,1
    50203348:	cb3ff0ef          	jal	ra,50202ffa <sys_move_cursor>
    5020334c:	00001597          	auipc	a1,0x1
    50203350:	05c58593          	addi	a1,a1,92 # 502043a8 <blank>
    50203354:	00001517          	auipc	a0,0x1
    50203358:	97450513          	addi	a0,a0,-1676 # 50203cc8 <__FUNCTION__.1316+0x148>
    5020335c:	917ff0ef          	jal	ra,50202c72 <printf>
    50203360:	bd55                	j	50203214 <drawing_task+0xe>

0000000050203362 <sleep_task>:
    50203362:	1101                	addi	sp,sp,-32
    50203364:	ec06                	sd	ra,24(sp)
    50203366:	e822                	sd	s0,16(sp)
    50203368:	1000                	addi	s0,sp,32
    5020336a:	4785                	li	a5,1
    5020336c:	fef42423          	sw	a5,-24(s0)
    50203370:	4795                	li	a5,5
    50203372:	fef42223          	sw	a5,-28(s0)
    50203376:	fe042623          	sw	zero,-20(s0)
    5020337a:	a805                	j	502033aa <sleep_task+0x48>
    5020337c:	fe842783          	lw	a5,-24(s0)
    50203380:	85be                	mv	a1,a5
    50203382:	4505                	li	a0,1
    50203384:	c77ff0ef          	jal	ra,50202ffa <sys_move_cursor>
    50203388:	fec42783          	lw	a5,-20(s0)
    5020338c:	85be                	mv	a1,a5
    5020338e:	00001517          	auipc	a0,0x1
    50203392:	94250513          	addi	a0,a0,-1726 # 50203cd0 <__FUNCTION__.1316+0x150>
    50203396:	8ddff0ef          	jal	ra,50202c72 <printf>
    5020339a:	4505                	li	a0,1
    5020339c:	bf3ff0ef          	jal	ra,50202f8e <sys_sleep>
    502033a0:	fec42783          	lw	a5,-20(s0)
    502033a4:	2785                	addiw	a5,a5,1
    502033a6:	fef42623          	sw	a5,-20(s0)
    502033aa:	fec42783          	lw	a5,-20(s0)
    502033ae:	0007871b          	sext.w	a4,a5
    502033b2:	47a5                	li	a5,9
    502033b4:	fce7d4e3          	bge	a5,a4,5020337c <sleep_task+0x1a>
    502033b8:	fe842783          	lw	a5,-24(s0)
    502033bc:	85be                	mv	a1,a5
    502033be:	4505                	li	a0,1
    502033c0:	c3bff0ef          	jal	ra,50202ffa <sys_move_cursor>
    502033c4:	fe442783          	lw	a5,-28(s0)
    502033c8:	85be                	mv	a1,a5
    502033ca:	00001517          	auipc	a0,0x1
    502033ce:	93650513          	addi	a0,a0,-1738 # 50203d00 <__FUNCTION__.1316+0x180>
    502033d2:	8a1ff0ef          	jal	ra,50202c72 <printf>
    502033d6:	fe442783          	lw	a5,-28(s0)
    502033da:	853e                	mv	a0,a5
    502033dc:	bb3ff0ef          	jal	ra,50202f8e <sys_sleep>
    502033e0:	fe842783          	lw	a5,-24(s0)
    502033e4:	85be                	mv	a1,a5
    502033e6:	4505                	li	a0,1
    502033e8:	c13ff0ef          	jal	ra,50202ffa <sys_move_cursor>
    502033ec:	00001597          	auipc	a1,0x1
    502033f0:	03458593          	addi	a1,a1,52 # 50204420 <blank>
    502033f4:	00001517          	auipc	a0,0x1
    502033f8:	94450513          	addi	a0,a0,-1724 # 50203d38 <__FUNCTION__.1316+0x1b8>
    502033fc:	877ff0ef          	jal	ra,50202c72 <printf>
    50203400:	bf9d                	j	50203376 <sleep_task+0x14>

0000000050203402 <timer_task>:
    50203402:	7179                	addi	sp,sp,-48
    50203404:	f406                	sd	ra,40(sp)
    50203406:	f022                	sd	s0,32(sp)
    50203408:	ec26                	sd	s1,24(sp)
    5020340a:	1800                	addi	s0,sp,48
    5020340c:	4789                	li	a5,2
    5020340e:	fcf42e23          	sw	a5,-36(s0)
    50203412:	d65ff0ef          	jal	ra,50203176 <clock>
    50203416:	87aa                	mv	a5,a0
    50203418:	fcf42c23          	sw	a5,-40(s0)
    5020341c:	fd846483          	lwu	s1,-40(s0)
    50203420:	c0fff0ef          	jal	ra,5020302e <sys_get_timebase>
    50203424:	87aa                	mv	a5,a0
    50203426:	02f4c7b3          	div	a5,s1,a5
    5020342a:	fcf42a23          	sw	a5,-44(s0)
    5020342e:	fdc42783          	lw	a5,-36(s0)
    50203432:	85be                	mv	a1,a5
    50203434:	4505                	li	a0,1
    50203436:	bc5ff0ef          	jal	ra,50202ffa <sys_move_cursor>
    5020343a:	fd842703          	lw	a4,-40(s0)
    5020343e:	fd442783          	lw	a5,-44(s0)
    50203442:	863a                	mv	a2,a4
    50203444:	85be                	mv	a1,a5
    50203446:	00001517          	auipc	a0,0x1
    5020344a:	8fa50513          	addi	a0,a0,-1798 # 50203d40 <__FUNCTION__.1316+0x1c0>
    5020344e:	825ff0ef          	jal	ra,50202c72 <printf>
    50203452:	b7c1                	j	50203412 <timer_task+0x10>

0000000050203454 <lock_task1>:
    50203454:	1101                	addi	sp,sp,-32
    50203456:	ec06                	sd	ra,24(sp)
    50203458:	e822                	sd	s0,16(sp)
    5020345a:	1000                	addi	s0,sp,32
    5020345c:	478d                	li	a5,3
    5020345e:	fef42423          	sw	a5,-24(s0)
    50203462:	00003797          	auipc	a5,0x3
    50203466:	fae78793          	addi	a5,a5,-82 # 50206410 <is_init>
    5020346a:	439c                	lw	a5,0(a5)
    5020346c:	ef89                	bnez	a5,50203486 <lock_task1+0x32>
    5020346e:	00003517          	auipc	a0,0x3
    50203472:	faa50513          	addi	a0,a0,-86 # 50206418 <mutex_lock>
    50203476:	aabff0ef          	jal	ra,50202f20 <mthread_mutex_init>
    5020347a:	00003797          	auipc	a5,0x3
    5020347e:	f9678793          	addi	a5,a5,-106 # 50206410 <is_init>
    50203482:	4705                	li	a4,1
    50203484:	c398                	sw	a4,0(a5)
    50203486:	fe842783          	lw	a5,-24(s0)
    5020348a:	85be                	mv	a1,a5
    5020348c:	4505                	li	a0,1
    5020348e:	b6dff0ef          	jal	ra,50202ffa <sys_move_cursor>
    50203492:	00001597          	auipc	a1,0x1
    50203496:	fc658593          	addi	a1,a1,-58 # 50204458 <blank>
    5020349a:	00001517          	auipc	a0,0x1
    5020349e:	8de50513          	addi	a0,a0,-1826 # 50203d78 <__FUNCTION__.1316+0x1f8>
    502034a2:	fd0ff0ef          	jal	ra,50202c72 <printf>
    502034a6:	fe842783          	lw	a5,-24(s0)
    502034aa:	85be                	mv	a1,a5
    502034ac:	4505                	li	a0,1
    502034ae:	b4dff0ef          	jal	ra,50202ffa <sys_move_cursor>
    502034b2:	00001517          	auipc	a0,0x1
    502034b6:	8ce50513          	addi	a0,a0,-1842 # 50203d80 <__FUNCTION__.1316+0x200>
    502034ba:	fb8ff0ef          	jal	ra,50202c72 <printf>
    502034be:	00003517          	auipc	a0,0x3
    502034c2:	f5a50513          	addi	a0,a0,-166 # 50206418 <mutex_lock>
    502034c6:	a81ff0ef          	jal	ra,50202f46 <mthread_mutex_lock>
    502034ca:	fe042623          	sw	zero,-20(s0)
    502034ce:	a02d                	j	502034f8 <lock_task1+0xa4>
    502034d0:	fe842783          	lw	a5,-24(s0)
    502034d4:	85be                	mv	a1,a5
    502034d6:	4505                	li	a0,1
    502034d8:	b23ff0ef          	jal	ra,50202ffa <sys_move_cursor>
    502034dc:	fec42783          	lw	a5,-20(s0)
    502034e0:	85be                	mv	a1,a5
    502034e2:	00001517          	auipc	a0,0x1
    502034e6:	8be50513          	addi	a0,a0,-1858 # 50203da0 <__FUNCTION__.1316+0x220>
    502034ea:	f88ff0ef          	jal	ra,50202c72 <printf>
    502034ee:	fec42783          	lw	a5,-20(s0)
    502034f2:	2785                	addiw	a5,a5,1
    502034f4:	fef42623          	sw	a5,-20(s0)
    502034f8:	fec42783          	lw	a5,-20(s0)
    502034fc:	0007871b          	sext.w	a4,a5
    50203500:	47cd                	li	a5,19
    50203502:	fce7d7e3          	bge	a5,a4,502034d0 <lock_task1+0x7c>
    50203506:	fe842783          	lw	a5,-24(s0)
    5020350a:	85be                	mv	a1,a5
    5020350c:	4505                	li	a0,1
    5020350e:	aedff0ef          	jal	ra,50202ffa <sys_move_cursor>
    50203512:	00001597          	auipc	a1,0x1
    50203516:	f4658593          	addi	a1,a1,-186 # 50204458 <blank>
    5020351a:	00001517          	auipc	a0,0x1
    5020351e:	85e50513          	addi	a0,a0,-1954 # 50203d78 <__FUNCTION__.1316+0x1f8>
    50203522:	f50ff0ef          	jal	ra,50202c72 <printf>
    50203526:	fe842783          	lw	a5,-24(s0)
    5020352a:	85be                	mv	a1,a5
    5020352c:	4505                	li	a0,1
    5020352e:	acdff0ef          	jal	ra,50202ffa <sys_move_cursor>
    50203532:	00001517          	auipc	a0,0x1
    50203536:	89e50513          	addi	a0,a0,-1890 # 50203dd0 <__FUNCTION__.1316+0x250>
    5020353a:	f38ff0ef          	jal	ra,50202c72 <printf>
    5020353e:	00003517          	auipc	a0,0x3
    50203542:	eda50513          	addi	a0,a0,-294 # 50206418 <mutex_lock>
    50203546:	a25ff0ef          	jal	ra,50202f6a <mthread_mutex_unlock>
    5020354a:	bf21                	j	50203462 <lock_task1+0xe>

000000005020354c <lock_task2>:
    5020354c:	1101                	addi	sp,sp,-32
    5020354e:	ec06                	sd	ra,24(sp)
    50203550:	e822                	sd	s0,16(sp)
    50203552:	1000                	addi	s0,sp,32
    50203554:	4791                	li	a5,4
    50203556:	fef42423          	sw	a5,-24(s0)
    5020355a:	00003797          	auipc	a5,0x3
    5020355e:	eb678793          	addi	a5,a5,-330 # 50206410 <is_init>
    50203562:	439c                	lw	a5,0(a5)
    50203564:	ef89                	bnez	a5,5020357e <lock_task2+0x32>
    50203566:	00003517          	auipc	a0,0x3
    5020356a:	eb250513          	addi	a0,a0,-334 # 50206418 <mutex_lock>
    5020356e:	9b3ff0ef          	jal	ra,50202f20 <mthread_mutex_init>
    50203572:	00003797          	auipc	a5,0x3
    50203576:	e9e78793          	addi	a5,a5,-354 # 50206410 <is_init>
    5020357a:	4705                	li	a4,1
    5020357c:	c398                	sw	a4,0(a5)
    5020357e:	fe842783          	lw	a5,-24(s0)
    50203582:	85be                	mv	a1,a5
    50203584:	4505                	li	a0,1
    50203586:	a75ff0ef          	jal	ra,50202ffa <sys_move_cursor>
    5020358a:	00001597          	auipc	a1,0x1
    5020358e:	ece58593          	addi	a1,a1,-306 # 50204458 <blank>
    50203592:	00000517          	auipc	a0,0x0
    50203596:	7e650513          	addi	a0,a0,2022 # 50203d78 <__FUNCTION__.1316+0x1f8>
    5020359a:	ed8ff0ef          	jal	ra,50202c72 <printf>
    5020359e:	fe842783          	lw	a5,-24(s0)
    502035a2:	85be                	mv	a1,a5
    502035a4:	4505                	li	a0,1
    502035a6:	a55ff0ef          	jal	ra,50202ffa <sys_move_cursor>
    502035aa:	00000517          	auipc	a0,0x0
    502035ae:	7d650513          	addi	a0,a0,2006 # 50203d80 <__FUNCTION__.1316+0x200>
    502035b2:	ec0ff0ef          	jal	ra,50202c72 <printf>
    502035b6:	00003517          	auipc	a0,0x3
    502035ba:	e6250513          	addi	a0,a0,-414 # 50206418 <mutex_lock>
    502035be:	989ff0ef          	jal	ra,50202f46 <mthread_mutex_lock>
    502035c2:	fe042623          	sw	zero,-20(s0)
    502035c6:	a02d                	j	502035f0 <lock_task2+0xa4>
    502035c8:	fe842783          	lw	a5,-24(s0)
    502035cc:	85be                	mv	a1,a5
    502035ce:	4505                	li	a0,1
    502035d0:	a2bff0ef          	jal	ra,50202ffa <sys_move_cursor>
    502035d4:	fec42783          	lw	a5,-20(s0)
    502035d8:	85be                	mv	a1,a5
    502035da:	00000517          	auipc	a0,0x0
    502035de:	7c650513          	addi	a0,a0,1990 # 50203da0 <__FUNCTION__.1316+0x220>
    502035e2:	e90ff0ef          	jal	ra,50202c72 <printf>
    502035e6:	fec42783          	lw	a5,-20(s0)
    502035ea:	2785                	addiw	a5,a5,1
    502035ec:	fef42623          	sw	a5,-20(s0)
    502035f0:	fec42783          	lw	a5,-20(s0)
    502035f4:	0007871b          	sext.w	a4,a5
    502035f8:	47cd                	li	a5,19
    502035fa:	fce7d7e3          	bge	a5,a4,502035c8 <lock_task2+0x7c>
    502035fe:	fe842783          	lw	a5,-24(s0)
    50203602:	85be                	mv	a1,a5
    50203604:	4505                	li	a0,1
    50203606:	9f5ff0ef          	jal	ra,50202ffa <sys_move_cursor>
    5020360a:	00001597          	auipc	a1,0x1
    5020360e:	e4e58593          	addi	a1,a1,-434 # 50204458 <blank>
    50203612:	00000517          	auipc	a0,0x0
    50203616:	76650513          	addi	a0,a0,1894 # 50203d78 <__FUNCTION__.1316+0x1f8>
    5020361a:	e58ff0ef          	jal	ra,50202c72 <printf>
    5020361e:	fe842783          	lw	a5,-24(s0)
    50203622:	85be                	mv	a1,a5
    50203624:	4505                	li	a0,1
    50203626:	9d5ff0ef          	jal	ra,50202ffa <sys_move_cursor>
    5020362a:	00000517          	auipc	a0,0x0
    5020362e:	7a650513          	addi	a0,a0,1958 # 50203dd0 <__FUNCTION__.1316+0x250>
    50203632:	e40ff0ef          	jal	ra,50202c72 <printf>
    50203636:	00003517          	auipc	a0,0x3
    5020363a:	de250513          	addi	a0,a0,-542 # 50206418 <mutex_lock>
    5020363e:	92dff0ef          	jal	ra,50202f6a <mthread_mutex_unlock>
    50203642:	bf21                	j	5020355a <lock_task2+0xe>

0000000050203644 <fork_task>:
    50203644:	7179                	addi	sp,sp,-48
    50203646:	f406                	sd	ra,40(sp)
    50203648:	f022                	sd	s0,32(sp)
    5020364a:	1800                	addi	s0,sp,48
    5020364c:	47a5                	li	a5,9
    5020364e:	fef42423          	sw	a5,-24(s0)
    50203652:	fe042223          	sw	zero,-28(s0)
    50203656:	4785                	li	a5,1
    50203658:	fef42023          	sw	a5,-32(s0)
    5020365c:	fe042623          	sw	zero,-20(s0)
    50203660:	fe842783          	lw	a5,-24(s0)
    50203664:	85be                	mv	a1,a5
    50203666:	4505                	li	a0,1
    50203668:	993ff0ef          	jal	ra,50202ffa <sys_move_cursor>
    5020366c:	fe442783          	lw	a5,-28(s0)
    50203670:	2781                	sext.w	a5,a5
    50203672:	eb99                	bnez	a5,50203688 <fork_task+0x44>
    50203674:	fec42783          	lw	a5,-20(s0)
    50203678:	85be                	mv	a1,a5
    5020367a:	00000517          	auipc	a0,0x0
    5020367e:	77e50513          	addi	a0,a0,1918 # 50203df8 <__FUNCTION__.1316+0x278>
    50203682:	df0ff0ef          	jal	ra,50202c72 <printf>
    50203686:	a829                	j	502036a0 <fork_task+0x5c>
    50203688:	fec42703          	lw	a4,-20(s0)
    5020368c:	fe442783          	lw	a5,-28(s0)
    50203690:	863a                	mv	a2,a4
    50203692:	85be                	mv	a1,a5
    50203694:	00000517          	auipc	a0,0x0
    50203698:	7ac50513          	addi	a0,a0,1964 # 50203e40 <__FUNCTION__.1316+0x2c0>
    5020369c:	dd6ff0ef          	jal	ra,50202c72 <printf>
    502036a0:	fe042783          	lw	a5,-32(s0)
    502036a4:	2781                	sext.w	a5,a5
    502036a6:	c3ad                	beqz	a5,50203708 <fork_task+0xc4>
    502036a8:	a5fff0ef          	jal	ra,50203106 <sys_read>
    502036ac:	87aa                	mv	a5,a0
    502036ae:	fcf40fa3          	sb	a5,-33(s0)
    502036b2:	fdf44783          	lbu	a5,-33(s0)
    502036b6:	0ff7f713          	andi	a4,a5,255
    502036ba:	02f00793          	li	a5,47
    502036be:	04e7f763          	bgeu	a5,a4,5020370c <fork_task+0xc8>
    502036c2:	fdf44783          	lbu	a5,-33(s0)
    502036c6:	0ff7f713          	andi	a4,a5,255
    502036ca:	03400793          	li	a5,52
    502036ce:	02e7ef63          	bltu	a5,a4,5020370c <fork_task+0xc8>
    502036d2:	a93ff0ef          	jal	ra,50203164 <sys_fork>
    502036d6:	87aa                	mv	a5,a0
    502036d8:	c781                	beqz	a5,502036e0 <fork_task+0x9c>
    502036da:	fe042023          	sw	zero,-32(s0)
    502036de:	a805                	j	5020370e <fork_task+0xca>
    502036e0:	fe842783          	lw	a5,-24(s0)
    502036e4:	2785                	addiw	a5,a5,1
    502036e6:	fef42423          	sw	a5,-24(s0)
    502036ea:	fe442783          	lw	a5,-28(s0)
    502036ee:	2785                	addiw	a5,a5,1
    502036f0:	fef42223          	sw	a5,-28(s0)
    502036f4:	fdf44783          	lbu	a5,-33(s0)
    502036f8:	2781                	sext.w	a5,a5
    502036fa:	fd07879b          	addiw	a5,a5,-48
    502036fe:	2781                	sext.w	a5,a5
    50203700:	853e                	mv	a0,a5
    50203702:	a29ff0ef          	jal	ra,5020312a <sys_priority>
    50203706:	a021                	j	5020370e <fork_task+0xca>
    50203708:	0001                	nop
    5020370a:	a011                	j	5020370e <fork_task+0xca>
    5020370c:	0001                	nop
    5020370e:	fec42783          	lw	a5,-20(s0)
    50203712:	2785                	addiw	a5,a5,1
    50203714:	fef42623          	sw	a5,-20(s0)
    50203718:	b7a1                	j	50203660 <fork_task+0x1c>

000000005020371a <prior_task1>:
    5020371a:	1101                	addi	sp,sp,-32
    5020371c:	ec06                	sd	ra,24(sp)
    5020371e:	e822                	sd	s0,16(sp)
    50203720:	1000                	addi	s0,sp,32
    50203722:	479d                	li	a5,7
    50203724:	fef42423          	sw	a5,-24(s0)
    50203728:	4505                	li	a0,1
    5020372a:	a01ff0ef          	jal	ra,5020312a <sys_priority>
    5020372e:	fe042623          	sw	zero,-20(s0)
    50203732:	fe842783          	lw	a5,-24(s0)
    50203736:	85be                	mv	a1,a5
    50203738:	4505                	li	a0,1
    5020373a:	8c1ff0ef          	jal	ra,50202ffa <sys_move_cursor>
    5020373e:	fec42783          	lw	a5,-20(s0)
    50203742:	85be                	mv	a1,a5
    50203744:	00000517          	auipc	a0,0x0
    50203748:	74450513          	addi	a0,a0,1860 # 50203e88 <__FUNCTION__.1316+0x308>
    5020374c:	d26ff0ef          	jal	ra,50202c72 <printf>
    50203750:	fec42783          	lw	a5,-20(s0)
    50203754:	2785                	addiw	a5,a5,1
    50203756:	fef42623          	sw	a5,-20(s0)
    5020375a:	bfe1                	j	50203732 <prior_task1+0x18>

000000005020375c <prior_task2>:
    5020375c:	1101                	addi	sp,sp,-32
    5020375e:	ec06                	sd	ra,24(sp)
    50203760:	e822                	sd	s0,16(sp)
    50203762:	1000                	addi	s0,sp,32
    50203764:	47a1                	li	a5,8
    50203766:	fef42423          	sw	a5,-24(s0)
    5020376a:	4509                	li	a0,2
    5020376c:	9bfff0ef          	jal	ra,5020312a <sys_priority>
    50203770:	fe042623          	sw	zero,-20(s0)
    50203774:	fe842783          	lw	a5,-24(s0)
    50203778:	85be                	mv	a1,a5
    5020377a:	4505                	li	a0,1
    5020377c:	87fff0ef          	jal	ra,50202ffa <sys_move_cursor>
    50203780:	fec42783          	lw	a5,-20(s0)
    50203784:	85be                	mv	a1,a5
    50203786:	00000517          	auipc	a0,0x0
    5020378a:	74a50513          	addi	a0,a0,1866 # 50203ed0 <__FUNCTION__.1316+0x350>
    5020378e:	ce4ff0ef          	jal	ra,50202c72 <printf>
    50203792:	fec42783          	lw	a5,-20(s0)
    50203796:	2785                	addiw	a5,a5,1
    50203798:	fef42623          	sw	a5,-20(s0)
    5020379c:	bfe1                	j	50203774 <prior_task2+0x18>
